TMS320C2000 Assembler PC v6.4.6 Thu Sep 17 14:11:15 2015

Tools Copyright (c) 1996-2015 Texas Instruments Incorporated
C:\Users\Admiral\AppData\Local\Temp\0215610                          PAGE    1

       1              ;***************************************************************
       2              ;* TMS320C2000 C/C++ Codegen                         PC v6.4.6 *
       3              ;* Date/Time created: Thu Sep 17 14:11:15 2015                 *
       4              ;***************************************************************
       5                      .compiler_opts --float_support=softlib --hll_source=on --mem_model:code=flat --mem_model:data=large -
       6        0002  FP      .set    XAR2
       7              
       8              $C$DW$CU        .dwtag  DW_TAG_compile_unit
       9                      .dwattr $C$DW$CU, DW_AT_name("../proj_lab05a.c")
      10                      .dwattr $C$DW$CU, DW_AT_producer("TI TMS320C2000 C/C++ Codegen PC v6.4.6 Copyright (c) 1996-2015 Texa
      11                      .dwattr $C$DW$CU, DW_AT_TI_version(0x01)
      12                      .dwattr $C$DW$CU, DW_AT_comp_dir("C:\Users\Admiral\workspace2_v6_1\proj_lab05a_with_SCI_and_CAP\Flash
      13              ;**************************************************************
      14              ;* CINIT RECORDS                                              *
      15              ;**************************************************************
      16 00000000               .sect   ".cinit"
      17                      .align  1
      18 00000000 FFFF          .field          -1,16
      19 00000001 0000-         .field          _gCounter_updateGlobals+0,32
         00000002 0000 
      20 00000003 0000          .bits   0,16                    ; _gCounter_updateGlobals @ 0
      21              
      22 00000004               .sect   ".cinit"
      23                      .align  1
      24 00000004 FFFF          .field          -1,16
      25 00000005 0001-         .field          _Flag_Latch_softwareUpdate+0,32
         00000006 0000 
      26 00000007 0001          .bits   1,16                    ; _Flag_Latch_softwareUpdate @ 0
      27              
      28 00000008               .sect   ".cinit"
      29                      .align  1
      30 00000008 FFFF          .field          -1,16
      31 00000009 0002-         .field          _bufPos+0,32
         0000000a 0000 
      32 0000000b 0000          .bits   0,16                    ; _bufPos @ 0
      33              
      34 0000000c               .sect   ".cinit"
      35                      .align  1
      36 0000000c FFFF          .field          -1,16
      37 0000000d 0003-         .field          _cmdReady+0,32
         0000000e 0000 
      38 0000000f 0000          .bits   0,16                    ; _cmdReady @ 0
      39              
      40 00000010               .sect   ".cinit"
      41                      .align  1
      42 00000010 FFFF          .field          -1,16
      43 00000011 0004-         .field          _ReceivedChar+0,32
         00000012 0000 
      44 00000013 0000          .bits   0,16                    ; _ReceivedChar @ 0
      45              
      46 00000014               .sect   ".cinit"
      47                      .align  1
      48 00000014 FFFF          .field          -1,16
      49 00000015 0005-         .field          _gLEDcnt+0,32
         00000016 0000 
TMS320C2000 Assembler PC v6.4.6 Thu Sep 17 14:11:15 2015

Tools Copyright (c) 1996-2015 Texas Instruments Incorporated
C:\Users\Admiral\AppData\Local\Temp\0215610                          PAGE    2

      50 00000017 0000          .bits   0,16                    ; _gLEDcnt @ 0
      51              
      52 00000018               .sect   ".cinit"
      53                      .align  1
      54 00000018 FFFE          .field          -2,16
      55 00000019 000A-         .field          _ECap1IntCount+0,32
         0000001a 0000 
      56 0000001b 0000          .bits   0,32                    ; _ECap1IntCount @ 0
         0000001c 0000 
      57              
      58 0000001d               .sect   ".cinit"
      59                      .align  1
      60 0000001d FFFE          .field          -2,16
      61 0000001e 000E-         .field          _gMaxCurrentSlope+0,32
         0000001f 0000 
      62 00000020 0000          .bits   0,32                    ; _gMaxCurrentSlope @ 0
         00000021 0000 
      63              
      64 00000022               .sect   ".cinit"
      65                      .align  1
      66 00000022 FFFC          .field          -$C$IR_1,16
      67 00000023 0016-         .field          _CAP_DATA+0,32
         00000024 0000 
      68 00000025 0000          .bits   0,32                    ; _CAP_DATA[0] @ 0
         00000026 0000 
      69 00000027 0000          .bits   0,32                    ; _CAP_DATA[1] @ 32
         00000028 0000 
      70        0004  $C$IR_1:        .set    4
      71              
      72 00000029               .sect   ".cinit"
      73                      .align  1
      74 00000029 FFFA          .field          -$C$IR_2,16
      75 0000002a 001A-         .field          _gPwmData+0,32
         0000002b 0000 
      76 0000002c 0000          .bits   0,32                    ; _gPwmData._Tabc._value[0] @ 0
         0000002d 0000 
      77 0000002e 0000          .bits   0,32                    ; _gPwmData._Tabc._value[1] @ 32
         0000002f 0000 
      78 00000030 0000          .bits   0,32                    ; _gPwmData._Tabc._value[2] @ 64
         00000031 0000 
      79        0006  $C$IR_2:        .set    6
      80              
      81 00000032               .sect   ".cinit"
      82                      .align  1
      83 00000032 FF98          .field          -$C$IR_3,16
      84 00000033 00C0-         .field          _gMotorVars+0,32
         00000034 0000 
      85 00000035 0000          .bits   0,16                    ; _gMotorVars._Flag_enableSys @ 0
      86 00000036 0000          .bits   0,16                    ; _gMotorVars._Flag_Run_Identify @ 16
      87 00000037 0000          .bits   0,16                    ; _gMotorVars._Flag_MotorIdentified @ 32
      88 00000038 0001          .bits   1,16                    ; _gMotorVars._Flag_enableForceAngle @ 48
      89 00000039 0000          .bits   0,16                    ; _gMotorVars._Flag_enableFieldWeakening @ 64
      90 0000003a 0000          .bits   0,16                    ; _gMotorVars._Flag_enableRsRecalc @ 80
      91 0000003b 0001          .bits   1,16                    ; _gMotorVars._Flag_enableUserParams @ 96
      92 0000003c 0001          .bits   1,16                    ; _gMotorVars._Flag_enableOffsetcalc @ 112
TMS320C2000 Assembler PC v6.4.6 Thu Sep 17 14:11:15 2015

Tools Copyright (c) 1996-2015 Texas Instruments Incorporated
C:\Users\Admiral\AppData\Local\Temp\0215610                          PAGE    3

      93 0000003d 0000          .bits   0,16                    ; _gMotorVars._Flag_enablePowerWarp @ 128
      94 0000003e 0000          .bits   0,16                    ; _gMotorVars._Flag_enableSpeedCtrl @ 144
      95 0000003f 0001          .bits   1,16                    ; _gMotorVars._CtrlState @ 160
      96 00000040 0001          .bits   1,16                    ; _gMotorVars._EstState @ 176
      97 00000041 0000          .bits   0,16                    ; _gMotorVars._UserErrorCode @ 192
      98 00000042 0000          .bits   0,16                    ; _gMotorVars._CtrlVersion._rsvd @ 208
      99 00000043 0004          .bits   4,16                    ; _gMotorVars._CtrlVersion._targetProc @ 224
     100 00000044 0000          .bits   0,16                    ; _gMotorVars._CtrlVersion._major @ 240
     101 00000045 0000          .bits   0,16                    ; _gMotorVars._CtrlVersion._minor @ 256
     102 00000046               .space  16
     103 00000047 0000          .bits   0,32                    ; _gMotorVars._IdRef_A @ 288
         00000048 0000 
     104 00000049 0000          .bits   0,32                    ; _gMotorVars._IqRef_A @ 320
         0000004a 0000 
     105 0000004b 0000          .bits   0,32                    ; _gMotorVars._SpeedRef_pu @ 352
         0000004c 0000 
     106 0000004d 9999          .bits   1677721,32                      ; _gMotorVars._SpeedRef_krpm @ 384
         0000004e 0019 
     107 0000004f 0000          .bits   0,32                    ; _gMotorVars._SpeedTraj_krpm @ 416
         00000050 0000 
     108 00000051 3333          .bits   3355443,32                      ; _gMotorVars._MaxAccel_krpmps @ 448
         00000052 0033 
     109 00000053 0000          .bits   0,32                    ; _gMotorVars._Speed_krpm @ 480
         00000054 0000 
     110 00000055 AAAB          .bits   11184811,32                     ; _gMotorVars._OverModulation @ 512
         00000056 00AA 
     111 00000057 0000          .bits   8388608,32                      ; _gMotorVars._RsOnLineCurrent_A @ 544
         00000058 0080 
     112 00000059 0190          .bits   400,32                  ; _gMotorVars._SvgenMaxModulation_ticks @ 576
         0000005a 0000 
     113 0000005b 0000          .bits   0,32                    ; _gMotorVars._Flux_Wb @ 608
         0000005c 0000 
     114 0000005d 0000          .bits   0,32                    ; _gMotorVars._Torque_Nm @ 640
         0000005e 0000 
     115 0000005f 0000          .xfloat $strtod("0x0p+0")               ; _gMotorVars._MagnCurr_A @ 672
         00000060 0000 
     116 00000061 0000          .xfloat $strtod("0x0p+0")               ; _gMotorVars._Rr_Ohm @ 704
         00000062 0000 
     117 00000063 0000          .xfloat $strtod("0x0p+0")               ; _gMotorVars._Rs_Ohm @ 736
         00000064 0000 
     118 00000065 0000          .xfloat $strtod("0x0p+0")               ; _gMotorVars._RsOnLine_Ohm @ 768
         00000066 0000 
     119 00000067 0000          .xfloat $strtod("0x0p+0")               ; _gMotorVars._Lsd_H @ 800
         00000068 0000 
     120 00000069 0000          .xfloat $strtod("0x0p+0")               ; _gMotorVars._Lsq_H @ 832
         0000006a 0000 
     121 0000006b 0000          .xfloat $strtod("0x0p+0")               ; _gMotorVars._Flux_VpHz @ 864
         0000006c 0000 
     122 0000006d 0000          .xfloat $strtod("0x0p+0")               ; _gMotorVars._ipd_excFreq_Hz @ 896
         0000006e 0000 
     123 0000006f 0000          .bits   0,32                    ; _gMotorVars._ipd_Kspd @ 928
         00000070 0000 
     124 00000071 0000          .bits   0,32                    ; _gMotorVars._ipd_excMag_coarse_pu @ 960
         00000072 0000 
     125 00000073 0000          .bits   0,32                    ; _gMotorVars._ipd_excMag_fine_pu @ 992
TMS320C2000 Assembler PC v6.4.6 Thu Sep 17 14:11:15 2015

Tools Copyright (c) 1996-2015 Texas Instruments Incorporated
C:\Users\Admiral\AppData\Local\Temp\0215610                          PAGE    4

         00000074 0000 
     126 00000075 0000          .xfloat $strtod("0x0p+0")               ; _gMotorVars._ipd_waitTime_coarse_sec @ 1024
         00000076 0000 
     127 00000077 0000          .xfloat $strtod("0x0p+0")               ; _gMotorVars._ipd_waitTime_fine_sec @ 1056
         00000078 0000 
     128 00000079 0000          .bits   0,32                    ; _gMotorVars._Kp_spd @ 1088
         0000007a 0000 
     129 0000007b 0000          .bits   0,32                    ; _gMotorVars._Ki_spd @ 1120
         0000007c 0000 
     130 0000007d 0000          .bits   0,32                    ; _gMotorVars._Kp_Idq @ 1152
         0000007e 0000 
     131 0000007f 0000          .bits   0,32                    ; _gMotorVars._Ki_Idq @ 1184
         00000080 0000 
     132 00000081 0000          .bits   0,32                    ; _gMotorVars._Vd @ 1216
         00000082 0000 
     133 00000083 0000          .bits   0,32                    ; _gMotorVars._Vq @ 1248
         00000084 0000 
     134 00000085 0000          .bits   0,32                    ; _gMotorVars._Vs @ 1280
         00000086 0000 
     135 00000087 8889          .bits   8947849,32                      ; _gMotorVars._VsRef @ 1312
         00000088 0088 
     136 00000089 0000          .bits   0,32                    ; _gMotorVars._VdcBus_kV @ 1344
         0000008a 0000 
     137 0000008b 0000          .bits   0,32                    ; _gMotorVars._Id_A @ 1376
         0000008c 0000 
     138 0000008d 0000          .bits   0,32                    ; _gMotorVars._Iq_A @ 1408
         0000008e 0000 
     139 0000008f 0000          .bits   0,32                    ; _gMotorVars._Is_A @ 1440
         00000090 0000 
     140 00000091 0000          .bits   0,32                    ; _gMotorVars._I_bias._value[0] @ 1472
         00000092 0000 
     141 00000093 0000          .bits   0,32                    ; _gMotorVars._I_bias._value[1] @ 1504
         00000094 0000 
     142 00000095 0000          .bits   0,32                    ; _gMotorVars._I_bias._value[2] @ 1536
         00000096 0000 
     143 00000097 0000          .bits   0,32                    ; _gMotorVars._V_bias._value[0] @ 1568
         00000098 0000 
     144 00000099 0000          .bits   0,32                    ; _gMotorVars._V_bias._value[1] @ 1600
         0000009a 0000 
     145 0000009b 0000          .bits   0,32                    ; _gMotorVars._V_bias._value[2] @ 1632
         0000009c 0000 
     146        0068  $C$IR_3:        .set    104
     147              
     148              
     149              $C$DW$1 .dwtag  DW_TAG_subprogram, DW_AT_name("HAL_enableAdcInts")
     150                      .dwattr $C$DW$1, DW_AT_TI_symbol_name("_HAL_enableAdcInts")
     151                      .dwattr $C$DW$1, DW_AT_declaration
     152                      .dwattr $C$DW$1, DW_AT_external
     153              $C$DW$2 .dwtag  DW_TAG_formal_parameter
     154                      .dwattr $C$DW$2, DW_AT_type(*$C$DW$T$297)
     155                      .dwendtag $C$DW$1
     156              
     157              
     158              $C$DW$3 .dwtag  DW_TAG_subprogram, DW_AT_name("CTRL_setSpd_ref_krpm")
     159                      .dwattr $C$DW$3, DW_AT_TI_symbol_name("_CTRL_setSpd_ref_krpm")
TMS320C2000 Assembler PC v6.4.6 Thu Sep 17 14:11:15 2015

Tools Copyright (c) 1996-2015 Texas Instruments Incorporated
C:\Users\Admiral\AppData\Local\Temp\0215610                          PAGE    5

     160                      .dwattr $C$DW$3, DW_AT_declaration
     161                      .dwattr $C$DW$3, DW_AT_external
     162              $C$DW$4 .dwtag  DW_TAG_formal_parameter
     163                      .dwattr $C$DW$4, DW_AT_type(*$C$DW$T$243)
     164              $C$DW$5 .dwtag  DW_TAG_formal_parameter
     165                      .dwattr $C$DW$5, DW_AT_type(*$C$DW$T$324)
     166                      .dwendtag $C$DW$3
     167              
     168              
     169              $C$DW$6 .dwtag  DW_TAG_subprogram, DW_AT_name("CTRL_setup")
     170                      .dwattr $C$DW$6, DW_AT_TI_symbol_name("_CTRL_setup")
     171                      .dwattr $C$DW$6, DW_AT_declaration
     172                      .dwattr $C$DW$6, DW_AT_external
     173              $C$DW$7 .dwtag  DW_TAG_formal_parameter
     174                      .dwattr $C$DW$7, DW_AT_type(*$C$DW$T$243)
     175                      .dwendtag $C$DW$6
     176              
     177              
     178              $C$DW$8 .dwtag  DW_TAG_subprogram, DW_AT_name("HAL_setupFaults")
     179                      .dwattr $C$DW$8, DW_AT_TI_symbol_name("_HAL_setupFaults")
     180                      .dwattr $C$DW$8, DW_AT_declaration
     181                      .dwattr $C$DW$8, DW_AT_external
     182              $C$DW$9 .dwtag  DW_TAG_formal_parameter
     183                      .dwattr $C$DW$9, DW_AT_type(*$C$DW$T$297)
     184                      .dwendtag $C$DW$8
     185              
     186              
     187              $C$DW$10        .dwtag  DW_TAG_subprogram, DW_AT_name("HAL_enableDrv")
     188                      .dwattr $C$DW$10, DW_AT_TI_symbol_name("_HAL_enableDrv")
     189                      .dwattr $C$DW$10, DW_AT_declaration
     190                      .dwattr $C$DW$10, DW_AT_external
     191              $C$DW$11        .dwtag  DW_TAG_formal_parameter
     192                      .dwattr $C$DW$11, DW_AT_type(*$C$DW$T$297)
     193                      .dwendtag $C$DW$10
     194              
     195              
     196              $C$DW$12        .dwtag  DW_TAG_subprogram, DW_AT_name("HAL_enableDebugInt")
     197                      .dwattr $C$DW$12, DW_AT_TI_symbol_name("_HAL_enableDebugInt")
     198                      .dwattr $C$DW$12, DW_AT_declaration
     199                      .dwattr $C$DW$12, DW_AT_external
     200              $C$DW$13        .dwtag  DW_TAG_formal_parameter
     201                      .dwattr $C$DW$13, DW_AT_type(*$C$DW$T$297)
     202                      .dwendtag $C$DW$12
     203              
     204              
     205              $C$DW$14        .dwtag  DW_TAG_subprogram, DW_AT_name("HAL_enableGlobalInts")
     206                      .dwattr $C$DW$14, DW_AT_TI_symbol_name("_HAL_enableGlobalInts")
     207                      .dwattr $C$DW$14, DW_AT_declaration
     208                      .dwattr $C$DW$14, DW_AT_external
     209              $C$DW$15        .dwtag  DW_TAG_formal_parameter
     210                      .dwattr $C$DW$15, DW_AT_type(*$C$DW$T$297)
     211                      .dwendtag $C$DW$14
     212              
     213              
     214              $C$DW$16        .dwtag  DW_TAG_subprogram, DW_AT_name("CTRL_setParams")
TMS320C2000 Assembler PC v6.4.6 Thu Sep 17 14:11:15 2015

Tools Copyright (c) 1996-2015 Texas Instruments Incorporated
C:\Users\Admiral\AppData\Local\Temp\0215610                          PAGE    6

     215                      .dwattr $C$DW$16, DW_AT_TI_symbol_name("_CTRL_setParams")
     216                      .dwattr $C$DW$16, DW_AT_declaration
     217                      .dwattr $C$DW$16, DW_AT_external
     218              $C$DW$17        .dwtag  DW_TAG_formal_parameter
     219                      .dwattr $C$DW$17, DW_AT_type(*$C$DW$T$243)
     220              $C$DW$18        .dwtag  DW_TAG_formal_parameter
     221                      .dwattr $C$DW$18, DW_AT_type(*$C$DW$T$250)
     222                      .dwendtag $C$DW$16
     223              
     224              
     225              $C$DW$19        .dwtag  DW_TAG_subprogram, DW_AT_name("CTRL_run")
     226                      .dwattr $C$DW$19, DW_AT_TI_symbol_name("_CTRL_run")
     227                      .dwattr $C$DW$19, DW_AT_declaration
     228                      .dwattr $C$DW$19, DW_AT_external
     229              $C$DW$20        .dwtag  DW_TAG_formal_parameter
     230                      .dwattr $C$DW$20, DW_AT_type(*$C$DW$T$243)
     231              $C$DW$21        .dwtag  DW_TAG_formal_parameter
     232                      .dwattr $C$DW$21, DW_AT_type(*$C$DW$T$297)
     233              $C$DW$22        .dwtag  DW_TAG_formal_parameter
     234                      .dwattr $C$DW$22, DW_AT_type(*$C$DW$T$291)
     235              $C$DW$23        .dwtag  DW_TAG_formal_parameter
     236                      .dwattr $C$DW$23, DW_AT_type(*$C$DW$T$302)
     237                      .dwendtag $C$DW$19
     238              
     239              
     240              $C$DW$24        .dwtag  DW_TAG_subprogram, DW_AT_name("CTRL_getVersion")
     241                      .dwattr $C$DW$24, DW_AT_TI_symbol_name("_CTRL_getVersion")
     242                      .dwattr $C$DW$24, DW_AT_declaration
     243                      .dwattr $C$DW$24, DW_AT_external
     244              $C$DW$25        .dwtag  DW_TAG_formal_parameter
     245                      .dwattr $C$DW$25, DW_AT_type(*$C$DW$T$243)
     246              $C$DW$26        .dwtag  DW_TAG_formal_parameter
     247                      .dwattr $C$DW$26, DW_AT_type(*$C$DW$T$284)
     248                      .dwendtag $C$DW$24
     249              
     250              
     251              $C$DW$27        .dwtag  DW_TAG_subprogram, DW_AT_name("HAL_setupDrvSpi")
     252                      .dwattr $C$DW$27, DW_AT_TI_symbol_name("_HAL_setupDrvSpi")
     253                      .dwattr $C$DW$27, DW_AT_declaration
     254                      .dwattr $C$DW$27, DW_AT_external
     255              $C$DW$28        .dwtag  DW_TAG_formal_parameter
     256                      .dwattr $C$DW$28, DW_AT_type(*$C$DW$T$297)
     257              $C$DW$29        .dwtag  DW_TAG_formal_parameter
     258                      .dwattr $C$DW$29, DW_AT_type(*$C$DW$T$288)
     259                      .dwendtag $C$DW$27
     260              
     261              
     262              $C$DW$30        .dwtag  DW_TAG_subprogram, DW_AT_name("HAL_writeDrvData")
     263                      .dwattr $C$DW$30, DW_AT_TI_symbol_name("_HAL_writeDrvData")
     264                      .dwattr $C$DW$30, DW_AT_declaration
     265                      .dwattr $C$DW$30, DW_AT_external
     266              $C$DW$31        .dwtag  DW_TAG_formal_parameter
     267                      .dwattr $C$DW$31, DW_AT_type(*$C$DW$T$297)
     268              $C$DW$32        .dwtag  DW_TAG_formal_parameter
     269                      .dwattr $C$DW$32, DW_AT_type(*$C$DW$T$288)
TMS320C2000 Assembler PC v6.4.6 Thu Sep 17 14:11:15 2015

Tools Copyright (c) 1996-2015 Texas Instruments Incorporated
C:\Users\Admiral\AppData\Local\Temp\0215610                          PAGE    7

     270                      .dwendtag $C$DW$30
     271              
     272              
     273              $C$DW$33        .dwtag  DW_TAG_subprogram, DW_AT_name("HAL_readDrvData")
     274                      .dwattr $C$DW$33, DW_AT_TI_symbol_name("_HAL_readDrvData")
     275                      .dwattr $C$DW$33, DW_AT_declaration
     276                      .dwattr $C$DW$33, DW_AT_external
     277              $C$DW$34        .dwtag  DW_TAG_formal_parameter
     278                      .dwattr $C$DW$34, DW_AT_type(*$C$DW$T$297)
     279              $C$DW$35        .dwtag  DW_TAG_formal_parameter
     280                      .dwattr $C$DW$35, DW_AT_type(*$C$DW$T$288)
     281                      .dwendtag $C$DW$33
     282              
     283              
     284              $C$DW$36        .dwtag  DW_TAG_subprogram, DW_AT_name("HAL_pieAckInt")
     285                      .dwattr $C$DW$36, DW_AT_TI_symbol_name("_HAL_pieAckInt")
     286                      .dwattr $C$DW$36, DW_AT_declaration
     287                      .dwattr $C$DW$36, DW_AT_external
     288              $C$DW$37        .dwtag  DW_TAG_formal_parameter
     289                      .dwattr $C$DW$37, DW_AT_type(*$C$DW$T$297)
     290              $C$DW$38        .dwtag  DW_TAG_formal_parameter
     291                      .dwattr $C$DW$38, DW_AT_type(*$C$DW$T$265)
     292                      .dwendtag $C$DW$36
     293              
     294              
     295              $C$DW$39        .dwtag  DW_TAG_subprogram, DW_AT_name("HAL_setParams")
     296                      .dwattr $C$DW$39, DW_AT_TI_symbol_name("_HAL_setParams")
     297                      .dwattr $C$DW$39, DW_AT_declaration
     298                      .dwattr $C$DW$39, DW_AT_external
     299              $C$DW$40        .dwtag  DW_TAG_formal_parameter
     300                      .dwattr $C$DW$40, DW_AT_type(*$C$DW$T$297)
     301              $C$DW$41        .dwtag  DW_TAG_formal_parameter
     302                      .dwattr $C$DW$41, DW_AT_type(*$C$DW$T$315)
     303                      .dwendtag $C$DW$39
     304              
     305              
     306              $C$DW$42        .dwtag  DW_TAG_subprogram, DW_AT_name("HAL_sciaClearRxFifoOvf")
     307                      .dwattr $C$DW$42, DW_AT_TI_symbol_name("_HAL_sciaClearRxFifoOvf")
     308                      .dwattr $C$DW$42, DW_AT_declaration
     309                      .dwattr $C$DW$42, DW_AT_external
     310              $C$DW$43        .dwtag  DW_TAG_formal_parameter
     311                      .dwattr $C$DW$43, DW_AT_type(*$C$DW$T$297)
     312                      .dwendtag $C$DW$42
     313              
     314              
     315              $C$DW$44        .dwtag  DW_TAG_subprogram, DW_AT_name("HAL_sciaClearRxFifoInt")
     316                      .dwattr $C$DW$44, DW_AT_TI_symbol_name("_HAL_sciaClearRxFifoInt")
     317                      .dwattr $C$DW$44, DW_AT_declaration
     318                      .dwattr $C$DW$44, DW_AT_external
     319              $C$DW$45        .dwtag  DW_TAG_formal_parameter
     320                      .dwattr $C$DW$45, DW_AT_type(*$C$DW$T$297)
     321                      .dwendtag $C$DW$44
     322              
     323              
     324              $C$DW$46        .dwtag  DW_TAG_subprogram, DW_AT_name("HAL_sciaWriteMsg")
TMS320C2000 Assembler PC v6.4.6 Thu Sep 17 14:11:15 2015

Tools Copyright (c) 1996-2015 Texas Instruments Incorporated
C:\Users\Admiral\AppData\Local\Temp\0215610                          PAGE    8

     325                      .dwattr $C$DW$46, DW_AT_TI_symbol_name("_HAL_sciaWriteMsg")
     326                      .dwattr $C$DW$46, DW_AT_declaration
     327                      .dwattr $C$DW$46, DW_AT_external
     328              $C$DW$47        .dwtag  DW_TAG_formal_parameter
     329                      .dwattr $C$DW$47, DW_AT_type(*$C$DW$T$297)
     330              $C$DW$48        .dwtag  DW_TAG_formal_parameter
     331                      .dwattr $C$DW$48, DW_AT_type(*$C$DW$T$362)
     332                      .dwendtag $C$DW$46
     333              
     334              
     335              $C$DW$49        .dwtag  DW_TAG_subprogram, DW_AT_name("HAL_sciaWrite")
     336                      .dwattr $C$DW$49, DW_AT_TI_symbol_name("_HAL_sciaWrite")
     337                      .dwattr $C$DW$49, DW_AT_declaration
     338                      .dwattr $C$DW$49, DW_AT_external
     339              $C$DW$50        .dwtag  DW_TAG_formal_parameter
     340                      .dwattr $C$DW$50, DW_AT_type(*$C$DW$T$297)
     341              $C$DW$51        .dwtag  DW_TAG_formal_parameter
     342                      .dwattr $C$DW$51, DW_AT_type(*$C$DW$T$331)
     343                      .dwendtag $C$DW$49
     344              
     345              
     346              $C$DW$52        .dwtag  DW_TAG_subprogram, DW_AT_name("GPIO_toggle")
     347                      .dwattr $C$DW$52, DW_AT_TI_symbol_name("_GPIO_toggle")
     348                      .dwattr $C$DW$52, DW_AT_declaration
     349                      .dwattr $C$DW$52, DW_AT_external
     350              $C$DW$53        .dwtag  DW_TAG_formal_parameter
     351                      .dwattr $C$DW$53, DW_AT_type(*$C$DW$T$79)
     352              $C$DW$54        .dwtag  DW_TAG_formal_parameter
     353                      .dwattr $C$DW$54, DW_AT_type(*$C$DW$T$245)
     354                      .dwendtag $C$DW$52
     355              
     356              
     357              $C$DW$55        .dwtag  DW_TAG_subprogram, DW_AT_name("USER_softwareUpdate1p6")
     358                      .dwattr $C$DW$55, DW_AT_TI_symbol_name("_USER_softwareUpdate1p6")
     359                      .dwattr $C$DW$55, DW_AT_declaration
     360                      .dwattr $C$DW$55, DW_AT_external
     361              $C$DW$56        .dwtag  DW_TAG_formal_parameter
     362                      .dwattr $C$DW$56, DW_AT_type(*$C$DW$T$243)
     363                      .dwendtag $C$DW$55
     364              
     365              
     366              $C$DW$57        .dwtag  DW_TAG_subprogram, DW_AT_name("USER_calcPIgains")
     367                      .dwattr $C$DW$57, DW_AT_TI_symbol_name("_USER_calcPIgains")
     368                      .dwattr $C$DW$57, DW_AT_declaration
     369                      .dwattr $C$DW$57, DW_AT_external
     370              $C$DW$58        .dwtag  DW_TAG_formal_parameter
     371                      .dwattr $C$DW$58, DW_AT_type(*$C$DW$T$243)
     372                      .dwendtag $C$DW$57
     373              
     374              
     375              $C$DW$59        .dwtag  DW_TAG_subprogram, DW_AT_name("USER_setParams")
     376                      .dwattr $C$DW$59, DW_AT_TI_symbol_name("_USER_setParams")
     377                      .dwattr $C$DW$59, DW_AT_declaration
     378                      .dwattr $C$DW$59, DW_AT_external
     379              $C$DW$60        .dwtag  DW_TAG_formal_parameter
TMS320C2000 Assembler PC v6.4.6 Thu Sep 17 14:11:15 2015

Tools Copyright (c) 1996-2015 Texas Instruments Incorporated
C:\Users\Admiral\AppData\Local\Temp\0215610                          PAGE    9

     380                      .dwattr $C$DW$60, DW_AT_type(*$C$DW$T$250)
     381                      .dwendtag $C$DW$59
     382              
     383              
     384              $C$DW$61        .dwtag  DW_TAG_subprogram, DW_AT_name("USER_checkForErrors")
     385                      .dwattr $C$DW$61, DW_AT_TI_symbol_name("_USER_checkForErrors")
     386                      .dwattr $C$DW$61, DW_AT_declaration
     387                      .dwattr $C$DW$61, DW_AT_external
     388              $C$DW$62        .dwtag  DW_TAG_formal_parameter
     389                      .dwattr $C$DW$62, DW_AT_type(*$C$DW$T$250)
     390                      .dwendtag $C$DW$61
     391              
     392              
     393              $C$DW$63        .dwtag  DW_TAG_subprogram, DW_AT_name("EST_setFlag_enableRsRecalc")
     394                      .dwattr $C$DW$63, DW_AT_TI_symbol_name("_EST_setFlag_enableRsRecalc")
     395                      .dwattr $C$DW$63, DW_AT_declaration
     396                      .dwattr $C$DW$63, DW_AT_external
     397              $C$DW$64        .dwtag  DW_TAG_formal_parameter
     398                      .dwattr $C$DW$64, DW_AT_type(*$C$DW$T$49)
     399              $C$DW$65        .dwtag  DW_TAG_formal_parameter
     400                      .dwattr $C$DW$65, DW_AT_type(*$C$DW$T$321)
     401                      .dwendtag $C$DW$63
     402              
     403              
     404              $C$DW$66        .dwtag  DW_TAG_subprogram, DW_AT_name("EST_setMaxCurrentSlope_pu")
     405                      .dwattr $C$DW$66, DW_AT_TI_symbol_name("_EST_setMaxCurrentSlope_pu")
     406                      .dwattr $C$DW$66, DW_AT_declaration
     407                      .dwattr $C$DW$66, DW_AT_external
     408              $C$DW$67        .dwtag  DW_TAG_formal_parameter
     409                      .dwattr $C$DW$67, DW_AT_type(*$C$DW$T$49)
     410              $C$DW$68        .dwtag  DW_TAG_formal_parameter
     411                      .dwattr $C$DW$68, DW_AT_type(*$C$DW$T$324)
     412                      .dwendtag $C$DW$66
     413              
     414              
     415              $C$DW$69        .dwtag  DW_TAG_subprogram, DW_AT_name("memCopy")
     416                      .dwattr $C$DW$69, DW_AT_TI_symbol_name("_memCopy")
     417                      .dwattr $C$DW$69, DW_AT_declaration
     418                      .dwattr $C$DW$69, DW_AT_external
     419              $C$DW$70        .dwtag  DW_TAG_formal_parameter
     420                      .dwattr $C$DW$70, DW_AT_type(*$C$DW$T$318)
     421              $C$DW$71        .dwtag  DW_TAG_formal_parameter
     422                      .dwattr $C$DW$71, DW_AT_type(*$C$DW$T$318)
     423              $C$DW$72        .dwtag  DW_TAG_formal_parameter
     424                      .dwattr $C$DW$72, DW_AT_type(*$C$DW$T$318)
     425                      .dwendtag $C$DW$69
     426              
     427              
     428              $C$DW$73        .dwtag  DW_TAG_subprogram, DW_AT_name("EST_setFlag_enableForceAngle")
     429                      .dwattr $C$DW$73, DW_AT_TI_symbol_name("_EST_setFlag_enableForceAngle")
     430                      .dwattr $C$DW$73, DW_AT_declaration
     431                      .dwattr $C$DW$73, DW_AT_external
     432              $C$DW$74        .dwtag  DW_TAG_formal_parameter
     433                      .dwattr $C$DW$74, DW_AT_type(*$C$DW$T$49)
     434              $C$DW$75        .dwtag  DW_TAG_formal_parameter
TMS320C2000 Assembler PC v6.4.6 Thu Sep 17 14:11:15 2015

Tools Copyright (c) 1996-2015 Texas Instruments Incorporated
C:\Users\Admiral\AppData\Local\Temp\0215610                          PAGE   10

     435                      .dwattr $C$DW$75, DW_AT_type(*$C$DW$T$321)
     436                      .dwendtag $C$DW$73
     437              
     438                      .global _gCounter_updateGlobals
     439 00000000       _gCounter_updateGlobals:        .usect  ".ebss",1,1,0
     440              $C$DW$76        .dwtag  DW_TAG_variable, DW_AT_name("gCounter_updateGlobals")
     441                      .dwattr $C$DW$76, DW_AT_TI_symbol_name("_gCounter_updateGlobals")
     442                      .dwattr $C$DW$76, DW_AT_location[DW_OP_addr _gCounter_updateGlobals]
     443                      .dwattr $C$DW$76, DW_AT_type(*$C$DW$T$68)
     444                      .dwattr $C$DW$76, DW_AT_external
     445                      .global _Flag_Latch_softwareUpdate
     446 00000001       _Flag_Latch_softwareUpdate:     .usect  ".ebss",1,1,0
     447              $C$DW$77        .dwtag  DW_TAG_variable, DW_AT_name("Flag_Latch_softwareUpdate")
     448                      .dwattr $C$DW$77, DW_AT_TI_symbol_name("_Flag_Latch_softwareUpdate")
     449                      .dwattr $C$DW$77, DW_AT_location[DW_OP_addr _Flag_Latch_softwareUpdate]
     450                      .dwattr $C$DW$77, DW_AT_type(*$C$DW$T$71)
     451                      .dwattr $C$DW$77, DW_AT_external
     452                      .global _bufPos
     453 00000002       _bufPos:        .usect  ".ebss",1,1,0
     454              $C$DW$78        .dwtag  DW_TAG_variable, DW_AT_name("bufPos")
     455                      .dwattr $C$DW$78, DW_AT_TI_symbol_name("_bufPos")
     456                      .dwattr $C$DW$78, DW_AT_location[DW_OP_addr _bufPos]
     457                      .dwattr $C$DW$78, DW_AT_type(*$C$DW$T$5)
     458                      .dwattr $C$DW$78, DW_AT_external
     459              
     460              $C$DW$79        .dwtag  DW_TAG_subprogram, DW_AT_name("HAL_sciaRead")
     461                      .dwattr $C$DW$79, DW_AT_TI_symbol_name("_HAL_sciaRead")
     462                      .dwattr $C$DW$79, DW_AT_type(*$C$DW$T$22)
     463                      .dwattr $C$DW$79, DW_AT_declaration
     464                      .dwattr $C$DW$79, DW_AT_external
     465              $C$DW$80        .dwtag  DW_TAG_formal_parameter
     466                      .dwattr $C$DW$80, DW_AT_type(*$C$DW$T$297)
     467                      .dwendtag $C$DW$79
     468              
     469              
     470              $C$DW$81        .dwtag  DW_TAG_subprogram, DW_AT_name("EST_getState")
     471                      .dwattr $C$DW$81, DW_AT_TI_symbol_name("_EST_getState")
     472                      .dwattr $C$DW$81, DW_AT_type(*$C$DW$T$206)
     473                      .dwattr $C$DW$81, DW_AT_declaration
     474                      .dwattr $C$DW$81, DW_AT_external
     475              $C$DW$82        .dwtag  DW_TAG_formal_parameter
     476                      .dwattr $C$DW$82, DW_AT_type(*$C$DW$T$49)
     477                      .dwendtag $C$DW$81
     478              
     479                      .global _cmdReady
     480 00000003       _cmdReady:      .usect  ".ebss",1,1,0
     481              $C$DW$83        .dwtag  DW_TAG_variable, DW_AT_name("cmdReady")
     482                      .dwattr $C$DW$83, DW_AT_TI_symbol_name("_cmdReady")
     483                      .dwattr $C$DW$83, DW_AT_location[DW_OP_addr _cmdReady]
     484                      .dwattr $C$DW$83, DW_AT_type(*$C$DW$T$5)
     485                      .dwattr $C$DW$83, DW_AT_external
     486              
     487              $C$DW$84        .dwtag  DW_TAG_subprogram, DW_AT_name("EST_isMotorIdentified")
     488                      .dwattr $C$DW$84, DW_AT_TI_symbol_name("_EST_isMotorIdentified")
     489                      .dwattr $C$DW$84, DW_AT_type(*$C$DW$T$71)
TMS320C2000 Assembler PC v6.4.6 Thu Sep 17 14:11:15 2015

Tools Copyright (c) 1996-2015 Texas Instruments Incorporated
C:\Users\Admiral\AppData\Local\Temp\0215610                          PAGE   11

     490                      .dwattr $C$DW$84, DW_AT_declaration
     491                      .dwattr $C$DW$84, DW_AT_external
     492              $C$DW$85        .dwtag  DW_TAG_formal_parameter
     493                      .dwattr $C$DW$85, DW_AT_type(*$C$DW$T$49)
     494                      .dwendtag $C$DW$84
     495              
     496                      .global _ReceivedChar
     497 00000004       _ReceivedChar:  .usect  ".ebss",1,1,0
     498              $C$DW$86        .dwtag  DW_TAG_variable, DW_AT_name("ReceivedChar")
     499                      .dwattr $C$DW$86, DW_AT_TI_symbol_name("_ReceivedChar")
     500                      .dwattr $C$DW$86, DW_AT_location[DW_OP_addr _ReceivedChar]
     501                      .dwattr $C$DW$86, DW_AT_type(*$C$DW$T$22)
     502                      .dwattr $C$DW$86, DW_AT_external
     503              
     504              $C$DW$87        .dwtag  DW_TAG_subprogram, DW_AT_name("CTRL_updateState")
     505                      .dwattr $C$DW$87, DW_AT_TI_symbol_name("_CTRL_updateState")
     506                      .dwattr $C$DW$87, DW_AT_type(*$C$DW$T$71)
     507                      .dwattr $C$DW$87, DW_AT_declaration
     508                      .dwattr $C$DW$87, DW_AT_external
     509              $C$DW$88        .dwtag  DW_TAG_formal_parameter
     510                      .dwattr $C$DW$88, DW_AT_type(*$C$DW$T$243)
     511                      .dwendtag $C$DW$87
     512              
     513              
     514              $C$DW$89        .dwtag  DW_TAG_subprogram, DW_AT_name("USER_getErrorCode")
     515                      .dwattr $C$DW$89, DW_AT_TI_symbol_name("_USER_getErrorCode")
     516                      .dwattr $C$DW$89, DW_AT_type(*$C$DW$T$208)
     517                      .dwattr $C$DW$89, DW_AT_declaration
     518                      .dwattr $C$DW$89, DW_AT_external
     519              $C$DW$90        .dwtag  DW_TAG_formal_parameter
     520                      .dwattr $C$DW$90, DW_AT_type(*$C$DW$T$250)
     521                      .dwendtag $C$DW$89
     522              
     523                      .global _gLEDcnt
     524 00000005       _gLEDcnt:       .usect  ".ebss",1,1,0
     525              $C$DW$91        .dwtag  DW_TAG_variable, DW_AT_name("gLEDcnt")
     526                      .dwattr $C$DW$91, DW_AT_TI_symbol_name("_gLEDcnt")
     527                      .dwattr $C$DW$91, DW_AT_location[DW_OP_addr _gLEDcnt]
     528                      .dwattr $C$DW$91, DW_AT_type(*$C$DW$T$22)
     529                      .dwattr $C$DW$91, DW_AT_external
     530              $C$DW$92        .dwtag  DW_TAG_variable, DW_AT_name("RamfuncsLoadStart")
     531                      .dwattr $C$DW$92, DW_AT_TI_symbol_name("_RamfuncsLoadStart")
     532                      .dwattr $C$DW$92, DW_AT_type(*$C$DW$T$318)
     533                      .dwattr $C$DW$92, DW_AT_declaration
     534                      .dwattr $C$DW$92, DW_AT_external
     535                      .global _gTorque_Flux_Iq_pu_to_Nm_sf
     536 00000006       _gTorque_Flux_Iq_pu_to_Nm_sf:   .usect  ".ebss",2,1,1
     537              $C$DW$93        .dwtag  DW_TAG_variable, DW_AT_name("gTorque_Flux_Iq_pu_to_Nm_sf")
     538                      .dwattr $C$DW$93, DW_AT_TI_symbol_name("_gTorque_Flux_Iq_pu_to_Nm_sf")
     539                      .dwattr $C$DW$93, DW_AT_location[DW_OP_addr _gTorque_Flux_Iq_pu_to_Nm_sf]
     540                      .dwattr $C$DW$93, DW_AT_type(*$C$DW$T$35)
     541                      .dwattr $C$DW$93, DW_AT_external
     542              $C$DW$94        .dwtag  DW_TAG_variable, DW_AT_name("RamfuncsLoadEnd")
     543                      .dwattr $C$DW$94, DW_AT_TI_symbol_name("_RamfuncsLoadEnd")
     544                      .dwattr $C$DW$94, DW_AT_type(*$C$DW$T$318)
TMS320C2000 Assembler PC v6.4.6 Thu Sep 17 14:11:15 2015

Tools Copyright (c) 1996-2015 Texas Instruments Incorporated
C:\Users\Admiral\AppData\Local\Temp\0215610                          PAGE   12

     545                      .dwattr $C$DW$94, DW_AT_declaration
     546                      .dwattr $C$DW$94, DW_AT_external
     547              
     548              $C$DW$95        .dwtag  DW_TAG_subprogram, DW_AT_name("EST_get_pu_to_krpm_sf")
     549                      .dwattr $C$DW$95, DW_AT_TI_symbol_name("_EST_get_pu_to_krpm_sf")
     550                      .dwattr $C$DW$95, DW_AT_type(*$C$DW$T$35)
     551                      .dwattr $C$DW$95, DW_AT_declaration
     552                      .dwattr $C$DW$95, DW_AT_external
     553              $C$DW$96        .dwtag  DW_TAG_formal_parameter
     554                      .dwattr $C$DW$96, DW_AT_type(*$C$DW$T$49)
     555                      .dwendtag $C$DW$95
     556              
     557                      .global _gFlux_pu_to_VpHz_sf
     558 00000008       _gFlux_pu_to_VpHz_sf:   .usect  ".ebss",2,1,1
     559              $C$DW$97        .dwtag  DW_TAG_variable, DW_AT_name("gFlux_pu_to_VpHz_sf")
     560                      .dwattr $C$DW$97, DW_AT_TI_symbol_name("_gFlux_pu_to_VpHz_sf")
     561                      .dwattr $C$DW$97, DW_AT_location[DW_OP_addr _gFlux_pu_to_VpHz_sf]
     562                      .dwattr $C$DW$97, DW_AT_type(*$C$DW$T$35)
     563                      .dwattr $C$DW$97, DW_AT_external
     564              
     565              $C$DW$98        .dwtag  DW_TAG_subprogram, DW_AT_name("__IQmpy")
     566                      .dwattr $C$DW$98, DW_AT_TI_symbol_name("___IQmpy")
     567                      .dwattr $C$DW$98, DW_AT_type(*$C$DW$T$12)
     568                      .dwattr $C$DW$98, DW_AT_declaration
     569                      .dwattr $C$DW$98, DW_AT_external
     570              $C$DW$99        .dwtag  DW_TAG_formal_parameter
     571                      .dwattr $C$DW$99, DW_AT_type(*$C$DW$T$12)
     572              $C$DW$100       .dwtag  DW_TAG_formal_parameter
     573                      .dwattr $C$DW$100, DW_AT_type(*$C$DW$T$12)
     574              $C$DW$101       .dwtag  DW_TAG_formal_parameter
     575                      .dwattr $C$DW$101, DW_AT_type(*$C$DW$T$10)
     576                      .dwendtag $C$DW$98
     577              
     578              
     579              $C$DW$102       .dwtag  DW_TAG_subprogram, DW_AT_name("__IQsat")
     580                      .dwattr $C$DW$102, DW_AT_TI_symbol_name("___IQsat")
     581                      .dwattr $C$DW$102, DW_AT_type(*$C$DW$T$12)
     582                      .dwattr $C$DW$102, DW_AT_declaration
     583                      .dwattr $C$DW$102, DW_AT_external
     584              $C$DW$103       .dwtag  DW_TAG_formal_parameter
     585                      .dwattr $C$DW$103, DW_AT_type(*$C$DW$T$12)
     586              $C$DW$104       .dwtag  DW_TAG_formal_parameter
     587                      .dwattr $C$DW$104, DW_AT_type(*$C$DW$T$12)
     588              $C$DW$105       .dwtag  DW_TAG_formal_parameter
     589                      .dwattr $C$DW$105, DW_AT_type(*$C$DW$T$12)
     590                      .dwendtag $C$DW$102
     591              
     592              
     593              $C$DW$106       .dwtag  DW_TAG_subprogram, DW_AT_name("labs")
     594                      .dwattr $C$DW$106, DW_AT_TI_symbol_name("_labs")
     595                      .dwattr $C$DW$106, DW_AT_type(*$C$DW$T$12)
     596                      .dwattr $C$DW$106, DW_AT_declaration
     597                      .dwattr $C$DW$106, DW_AT_external
     598              $C$DW$107       .dwtag  DW_TAG_formal_parameter
     599                      .dwattr $C$DW$107, DW_AT_type(*$C$DW$T$12)
TMS320C2000 Assembler PC v6.4.6 Thu Sep 17 14:11:15 2015

Tools Copyright (c) 1996-2015 Texas Instruments Incorporated
C:\Users\Admiral\AppData\Local\Temp\0215610                          PAGE   13

     600                      .dwendtag $C$DW$106
     601              
     602                      .global _ECap1IntCount
     603 0000000a       _ECap1IntCount: .usect  ".ebss",2,1,1
     604              $C$DW$108       .dwtag  DW_TAG_variable, DW_AT_name("ECap1IntCount")
     605                      .dwattr $C$DW$108, DW_AT_TI_symbol_name("_ECap1IntCount")
     606                      .dwattr $C$DW$108, DW_AT_location[DW_OP_addr _ECap1IntCount]
     607                      .dwattr $C$DW$108, DW_AT_type(*$C$DW$T$31)
     608                      .dwattr $C$DW$108, DW_AT_external
     609              
     610              $C$DW$109       .dwtag  DW_TAG_subprogram, DW_AT_name("_IQ24sqrt")
     611                      .dwattr $C$DW$109, DW_AT_TI_symbol_name("__IQ24sqrt")
     612                      .dwattr $C$DW$109, DW_AT_type(*$C$DW$T$12)
     613                      .dwattr $C$DW$109, DW_AT_declaration
     614                      .dwattr $C$DW$109, DW_AT_external
     615              $C$DW$110       .dwtag  DW_TAG_formal_parameter
     616                      .dwattr $C$DW$110, DW_AT_type(*$C$DW$T$12)
     617                      .dwendtag $C$DW$109
     618              
     619              $C$DW$111       .dwtag  DW_TAG_variable, DW_AT_name("switch_start")
     620                      .dwattr $C$DW$111, DW_AT_TI_symbol_name("_switch_start")
     621                      .dwattr $C$DW$111, DW_AT_type(*$C$DW$T$318)
     622                      .dwattr $C$DW$111, DW_AT_declaration
     623                      .dwattr $C$DW$111, DW_AT_external
     624                      .global _ctrlHandle
     625 0000000c       _ctrlHandle:    .usect  ".ebss",2,1,1
     626              $C$DW$112       .dwtag  DW_TAG_variable, DW_AT_name("ctrlHandle")
     627                      .dwattr $C$DW$112, DW_AT_TI_symbol_name("_ctrlHandle")
     628                      .dwattr $C$DW$112, DW_AT_location[DW_OP_addr _ctrlHandle]
     629                      .dwattr $C$DW$112, DW_AT_type(*$C$DW$T$243)
     630                      .dwattr $C$DW$112, DW_AT_external
     631              $C$DW$113       .dwtag  DW_TAG_variable, DW_AT_name("econst_end")
     632                      .dwattr $C$DW$113, DW_AT_TI_symbol_name("_econst_end")
     633                      .dwattr $C$DW$113, DW_AT_type(*$C$DW$T$318)
     634                      .dwattr $C$DW$113, DW_AT_declaration
     635                      .dwattr $C$DW$113, DW_AT_external
     636                      .global _gMaxCurrentSlope
     637 0000000e       _gMaxCurrentSlope:      .usect  ".ebss",2,1,1
     638              $C$DW$114       .dwtag  DW_TAG_variable, DW_AT_name("gMaxCurrentSlope")
     639                      .dwattr $C$DW$114, DW_AT_TI_symbol_name("_gMaxCurrentSlope")
     640                      .dwattr $C$DW$114, DW_AT_location[DW_OP_addr _gMaxCurrentSlope]
     641                      .dwattr $C$DW$114, DW_AT_type(*$C$DW$T$35)
     642                      .dwattr $C$DW$114, DW_AT_external
     643              $C$DW$115       .dwtag  DW_TAG_variable, DW_AT_name("switch_end")
     644                      .dwattr $C$DW$115, DW_AT_TI_symbol_name("_switch_end")
     645                      .dwattr $C$DW$115, DW_AT_type(*$C$DW$T$318)
     646                      .dwattr $C$DW$115, DW_AT_declaration
     647                      .dwattr $C$DW$115, DW_AT_external
     648              $C$DW$116       .dwtag  DW_TAG_variable, DW_AT_name("econst_ram_load")
     649                      .dwattr $C$DW$116, DW_AT_TI_symbol_name("_econst_ram_load")
     650                      .dwattr $C$DW$116, DW_AT_type(*$C$DW$T$318)
     651                      .dwattr $C$DW$116, DW_AT_declaration
     652                      .dwattr $C$DW$116, DW_AT_external
     653              $C$DW$117       .dwtag  DW_TAG_variable, DW_AT_name("RamfuncsRunStart")
     654                      .dwattr $C$DW$117, DW_AT_TI_symbol_name("_RamfuncsRunStart")
TMS320C2000 Assembler PC v6.4.6 Thu Sep 17 14:11:15 2015

Tools Copyright (c) 1996-2015 Texas Instruments Incorporated
C:\Users\Admiral\AppData\Local\Temp\0215610                          PAGE   14

     655                      .dwattr $C$DW$117, DW_AT_type(*$C$DW$T$318)
     656                      .dwattr $C$DW$117, DW_AT_declaration
     657                      .dwattr $C$DW$117, DW_AT_external
     658                      .global _msg
     659 00000010       _msg:   .usect  ".ebss",2,1,1
     660              $C$DW$118       .dwtag  DW_TAG_variable, DW_AT_name("msg")
     661                      .dwattr $C$DW$118, DW_AT_TI_symbol_name("_msg")
     662                      .dwattr $C$DW$118, DW_AT_location[DW_OP_addr _msg]
     663                      .dwattr $C$DW$118, DW_AT_type(*$C$DW$T$362)
     664                      .dwattr $C$DW$118, DW_AT_external
     665                      .global _gTorque_Ls_Id_Iq_pu_to_Nm_sf
     666 00000012       _gTorque_Ls_Id_Iq_pu_to_Nm_sf:  .usect  ".ebss",2,1,1
     667              $C$DW$119       .dwtag  DW_TAG_variable, DW_AT_name("gTorque_Ls_Id_Iq_pu_to_Nm_sf")
     668                      .dwattr $C$DW$119, DW_AT_TI_symbol_name("_gTorque_Ls_Id_Iq_pu_to_Nm_sf")
     669                      .dwattr $C$DW$119, DW_AT_location[DW_OP_addr _gTorque_Ls_Id_Iq_pu_to_Nm_sf]
     670                      .dwattr $C$DW$119, DW_AT_type(*$C$DW$T$35)
     671                      .dwattr $C$DW$119, DW_AT_external
     672              $C$DW$120       .dwtag  DW_TAG_variable, DW_AT_name("econst_start")
     673                      .dwattr $C$DW$120, DW_AT_TI_symbol_name("_econst_start")
     674                      .dwattr $C$DW$120, DW_AT_type(*$C$DW$T$318)
     675                      .dwattr $C$DW$120, DW_AT_declaration
     676                      .dwattr $C$DW$120, DW_AT_external
     677                      .global _halHandle
     678 00000000       _halHandle:     .usect  "rom_accessed_data",2,1,1
     679              $C$DW$121       .dwtag  DW_TAG_variable, DW_AT_name("halHandle")
     680                      .dwattr $C$DW$121, DW_AT_TI_symbol_name("_halHandle")
     681                      .dwattr $C$DW$121, DW_AT_location[DW_OP_addr _halHandle]
     682                      .dwattr $C$DW$121, DW_AT_type(*$C$DW$T$297)
     683                      .dwattr $C$DW$121, DW_AT_external
     684                      .global _gFlux_pu_to_Wb_sf
     685 00000014       _gFlux_pu_to_Wb_sf:     .usect  ".ebss",2,1,1
     686              $C$DW$122       .dwtag  DW_TAG_variable, DW_AT_name("gFlux_pu_to_Wb_sf")
     687                      .dwattr $C$DW$122, DW_AT_TI_symbol_name("_gFlux_pu_to_Wb_sf")
     688                      .dwattr $C$DW$122, DW_AT_location[DW_OP_addr _gFlux_pu_to_Wb_sf]
     689                      .dwattr $C$DW$122, DW_AT_type(*$C$DW$T$35)
     690                      .dwattr $C$DW$122, DW_AT_external
     691              $C$DW$123       .dwtag  DW_TAG_variable, DW_AT_name("switch_ram_load")
     692                      .dwattr $C$DW$123, DW_AT_TI_symbol_name("_switch_ram_load")
     693                      .dwattr $C$DW$123, DW_AT_type(*$C$DW$T$318)
     694                      .dwattr $C$DW$123, DW_AT_declaration
     695                      .dwattr $C$DW$123, DW_AT_external
     696              
     697              $C$DW$124       .dwtag  DW_TAG_subprogram, DW_AT_name("USER_computeFlux")
     698                      .dwattr $C$DW$124, DW_AT_TI_symbol_name("_USER_computeFlux")
     699                      .dwattr $C$DW$124, DW_AT_type(*$C$DW$T$35)
     700                      .dwattr $C$DW$124, DW_AT_declaration
     701                      .dwattr $C$DW$124, DW_AT_external
     702              $C$DW$125       .dwtag  DW_TAG_formal_parameter
     703                      .dwattr $C$DW$125, DW_AT_type(*$C$DW$T$243)
     704              $C$DW$126       .dwtag  DW_TAG_formal_parameter
     705                      .dwattr $C$DW$126, DW_AT_type(*$C$DW$T$324)
     706                      .dwendtag $C$DW$124
     707              
     708              
     709              $C$DW$127       .dwtag  DW_TAG_subprogram, DW_AT_name("USER_computeFlux_pu_to_VpHz_sf")
TMS320C2000 Assembler PC v6.4.6 Thu Sep 17 14:11:15 2015

Tools Copyright (c) 1996-2015 Texas Instruments Incorporated
C:\Users\Admiral\AppData\Local\Temp\0215610                          PAGE   15

     710                      .dwattr $C$DW$127, DW_AT_TI_symbol_name("_USER_computeFlux_pu_to_VpHz_sf")
     711                      .dwattr $C$DW$127, DW_AT_type(*$C$DW$T$35)
     712                      .dwattr $C$DW$127, DW_AT_declaration
     713                      .dwattr $C$DW$127, DW_AT_external
     714              
     715              $C$DW$128       .dwtag  DW_TAG_subprogram, DW_AT_name("CTRL_initCtrl")
     716                      .dwattr $C$DW$128, DW_AT_TI_symbol_name("_CTRL_initCtrl")
     717                      .dwattr $C$DW$128, DW_AT_type(*$C$DW$T$243)
     718                      .dwattr $C$DW$128, DW_AT_declaration
     719                      .dwattr $C$DW$128, DW_AT_external
     720              $C$DW$129       .dwtag  DW_TAG_formal_parameter
     721                      .dwattr $C$DW$129, DW_AT_type(*$C$DW$T$277)
     722              $C$DW$130       .dwtag  DW_TAG_formal_parameter
     723                      .dwattr $C$DW$130, DW_AT_type(*$C$DW$T$3)
     724              $C$DW$131       .dwtag  DW_TAG_formal_parameter
     725                      .dwattr $C$DW$131, DW_AT_type(*$C$DW$T$279)
     726                      .dwendtag $C$DW$128
     727              
     728              
     729              $C$DW$132       .dwtag  DW_TAG_subprogram, DW_AT_name("USER_computeTorque_Nm")
     730                      .dwattr $C$DW$132, DW_AT_TI_symbol_name("_USER_computeTorque_Nm")
     731                      .dwattr $C$DW$132, DW_AT_type(*$C$DW$T$35)
     732                      .dwattr $C$DW$132, DW_AT_declaration
     733                      .dwattr $C$DW$132, DW_AT_external
     734              $C$DW$133       .dwtag  DW_TAG_formal_parameter
     735                      .dwattr $C$DW$133, DW_AT_type(*$C$DW$T$243)
     736              $C$DW$134       .dwtag  DW_TAG_formal_parameter
     737                      .dwattr $C$DW$134, DW_AT_type(*$C$DW$T$324)
     738              $C$DW$135       .dwtag  DW_TAG_formal_parameter
     739                      .dwattr $C$DW$135, DW_AT_type(*$C$DW$T$324)
     740                      .dwendtag $C$DW$132
     741              
     742              
     743              $C$DW$136       .dwtag  DW_TAG_subprogram, DW_AT_name("USER_computeTorque_Ls_Id_Iq_pu_to_Nm_sf")
     744                      .dwattr $C$DW$136, DW_AT_TI_symbol_name("_USER_computeTorque_Ls_Id_Iq_pu_to_Nm_sf")
     745                      .dwattr $C$DW$136, DW_AT_type(*$C$DW$T$35)
     746                      .dwattr $C$DW$136, DW_AT_declaration
     747                      .dwattr $C$DW$136, DW_AT_external
     748              
     749              $C$DW$137       .dwtag  DW_TAG_subprogram, DW_AT_name("USER_computeFlux_pu_to_Wb_sf")
     750                      .dwattr $C$DW$137, DW_AT_TI_symbol_name("_USER_computeFlux_pu_to_Wb_sf")
     751                      .dwattr $C$DW$137, DW_AT_type(*$C$DW$T$35)
     752                      .dwattr $C$DW$137, DW_AT_declaration
     753                      .dwattr $C$DW$137, DW_AT_external
     754              
     755              $C$DW$138       .dwtag  DW_TAG_subprogram, DW_AT_name("EST_getRr_Ohm")
     756                      .dwattr $C$DW$138, DW_AT_TI_symbol_name("_EST_getRr_Ohm")
     757                      .dwattr $C$DW$138, DW_AT_type(*$C$DW$T$69)
     758                      .dwattr $C$DW$138, DW_AT_declaration
     759                      .dwattr $C$DW$138, DW_AT_external
     760              $C$DW$139       .dwtag  DW_TAG_formal_parameter
     761                      .dwattr $C$DW$139, DW_AT_type(*$C$DW$T$49)
     762                      .dwendtag $C$DW$138
     763              
     764              
TMS320C2000 Assembler PC v6.4.6 Thu Sep 17 14:11:15 2015

Tools Copyright (c) 1996-2015 Texas Instruments Incorporated
C:\Users\Admiral\AppData\Local\Temp\0215610                          PAGE   16

     765              $C$DW$140       .dwtag  DW_TAG_subprogram, DW_AT_name("EST_getMaxCurrentSlope_pu")
     766                      .dwattr $C$DW$140, DW_AT_TI_symbol_name("_EST_getMaxCurrentSlope_pu")
     767                      .dwattr $C$DW$140, DW_AT_type(*$C$DW$T$35)
     768                      .dwattr $C$DW$140, DW_AT_declaration
     769                      .dwattr $C$DW$140, DW_AT_external
     770              $C$DW$141       .dwtag  DW_TAG_formal_parameter
     771                      .dwattr $C$DW$141, DW_AT_type(*$C$DW$T$49)
     772                      .dwendtag $C$DW$140
     773              
     774              
     775              $C$DW$142       .dwtag  DW_TAG_subprogram, DW_AT_name("EST_getRs_Ohm")
     776                      .dwattr $C$DW$142, DW_AT_TI_symbol_name("_EST_getRs_Ohm")
     777                      .dwattr $C$DW$142, DW_AT_type(*$C$DW$T$69)
     778                      .dwattr $C$DW$142, DW_AT_declaration
     779                      .dwattr $C$DW$142, DW_AT_external
     780              $C$DW$143       .dwtag  DW_TAG_formal_parameter
     781                      .dwattr $C$DW$143, DW_AT_type(*$C$DW$T$49)
     782                      .dwendtag $C$DW$142
     783              
     784              
     785              $C$DW$144       .dwtag  DW_TAG_subprogram, DW_AT_name("EST_getIdRated")
     786                      .dwattr $C$DW$144, DW_AT_TI_symbol_name("_EST_getIdRated")
     787                      .dwattr $C$DW$144, DW_AT_type(*$C$DW$T$69)
     788                      .dwattr $C$DW$144, DW_AT_declaration
     789                      .dwattr $C$DW$144, DW_AT_external
     790              $C$DW$145       .dwtag  DW_TAG_formal_parameter
     791                      .dwattr $C$DW$145, DW_AT_type(*$C$DW$T$49)
     792                      .dwendtag $C$DW$144
     793              
     794              
     795              $C$DW$146       .dwtag  DW_TAG_subprogram, DW_AT_name("EST_getFlux_VpHz")
     796                      .dwattr $C$DW$146, DW_AT_TI_symbol_name("_EST_getFlux_VpHz")
     797                      .dwattr $C$DW$146, DW_AT_type(*$C$DW$T$69)
     798                      .dwattr $C$DW$146, DW_AT_declaration
     799                      .dwattr $C$DW$146, DW_AT_external
     800              $C$DW$147       .dwtag  DW_TAG_formal_parameter
     801                      .dwattr $C$DW$147, DW_AT_type(*$C$DW$T$49)
     802                      .dwendtag $C$DW$146
     803              
     804              
     805              $C$DW$148       .dwtag  DW_TAG_subprogram, DW_AT_name("EST_getLs_q_H")
     806                      .dwattr $C$DW$148, DW_AT_TI_symbol_name("_EST_getLs_q_H")
     807                      .dwattr $C$DW$148, DW_AT_type(*$C$DW$T$69)
     808                      .dwattr $C$DW$148, DW_AT_declaration
     809                      .dwattr $C$DW$148, DW_AT_external
     810              $C$DW$149       .dwtag  DW_TAG_formal_parameter
     811                      .dwattr $C$DW$149, DW_AT_type(*$C$DW$T$49)
     812                      .dwendtag $C$DW$148
     813              
     814              
     815              $C$DW$150       .dwtag  DW_TAG_subprogram, DW_AT_name("EST_getLs_d_H")
     816                      .dwattr $C$DW$150, DW_AT_TI_symbol_name("_EST_getLs_d_H")
     817                      .dwattr $C$DW$150, DW_AT_type(*$C$DW$T$69)
     818                      .dwattr $C$DW$150, DW_AT_declaration
     819                      .dwattr $C$DW$150, DW_AT_external
TMS320C2000 Assembler PC v6.4.6 Thu Sep 17 14:11:15 2015

Tools Copyright (c) 1996-2015 Texas Instruments Incorporated
C:\Users\Admiral\AppData\Local\Temp\0215610                          PAGE   17

     820              $C$DW$151       .dwtag  DW_TAG_formal_parameter
     821                      .dwattr $C$DW$151, DW_AT_type(*$C$DW$T$49)
     822                      .dwendtag $C$DW$150
     823              
     824              
     825              $C$DW$152       .dwtag  DW_TAG_subprogram, DW_AT_name("HAL_init")
     826                      .dwattr $C$DW$152, DW_AT_TI_symbol_name("_HAL_init")
     827                      .dwattr $C$DW$152, DW_AT_type(*$C$DW$T$297)
     828                      .dwattr $C$DW$152, DW_AT_declaration
     829                      .dwattr $C$DW$152, DW_AT_external
     830              $C$DW$153       .dwtag  DW_TAG_formal_parameter
     831                      .dwattr $C$DW$153, DW_AT_type(*$C$DW$T$3)
     832              $C$DW$154       .dwtag  DW_TAG_formal_parameter
     833                      .dwattr $C$DW$154, DW_AT_type(*$C$DW$T$279)
     834                      .dwendtag $C$DW$152
     835              
     836              
     837              $C$DW$155       .dwtag  DW_TAG_subprogram, DW_AT_name("USER_computeTorque_Flux_Iq_pu_to_Nm_sf")
     838                      .dwattr $C$DW$155, DW_AT_TI_symbol_name("_USER_computeTorque_Flux_Iq_pu_to_Nm_sf")
     839                      .dwattr $C$DW$155, DW_AT_type(*$C$DW$T$35)
     840                      .dwattr $C$DW$155, DW_AT_declaration
     841                      .dwattr $C$DW$155, DW_AT_external
     842              
     843              $C$DW$156       .dwtag  DW_TAG_subprogram, DW_AT_name("EST_getSpeed_krpm")
     844                      .dwattr $C$DW$156, DW_AT_TI_symbol_name("_EST_getSpeed_krpm")
     845                      .dwattr $C$DW$156, DW_AT_type(*$C$DW$T$35)
     846                      .dwattr $C$DW$156, DW_AT_declaration
     847                      .dwattr $C$DW$156, DW_AT_external
     848              $C$DW$157       .dwtag  DW_TAG_formal_parameter
     849                      .dwattr $C$DW$157, DW_AT_type(*$C$DW$T$49)
     850                      .dwendtag $C$DW$156
     851              
     852                      .global _CAP_DATA
     853 00000016       _CAP_DATA:      .usect  ".ebss",4,1,1
     854              $C$DW$158       .dwtag  DW_TAG_variable, DW_AT_name("CAP_DATA")
     855                      .dwattr $C$DW$158, DW_AT_TI_symbol_name("_CAP_DATA")
     856                      .dwattr $C$DW$158, DW_AT_location[DW_OP_addr _CAP_DATA]
     857                      .dwattr $C$DW$158, DW_AT_type(*$C$DW$T$413)
     858                      .dwattr $C$DW$158, DW_AT_external
     859                      .global _gPwmData
     860 0000001a       _gPwmData:      .usect  ".ebss",6,1,1
     861              $C$DW$159       .dwtag  DW_TAG_variable, DW_AT_name("gPwmData")
     862                      .dwattr $C$DW$159, DW_AT_TI_symbol_name("_gPwmData")
     863                      .dwattr $C$DW$159, DW_AT_location[DW_OP_addr _gPwmData]
     864                      .dwattr $C$DW$159, DW_AT_type(*$C$DW$T$301)
     865                      .dwattr $C$DW$159, DW_AT_external
     866                      .global _cmdBuf
     867 00000020       _cmdBuf:        .usect  ".ebss",8,1,0
     868              $C$DW$160       .dwtag  DW_TAG_variable, DW_AT_name("cmdBuf")
     869                      .dwattr $C$DW$160, DW_AT_TI_symbol_name("_cmdBuf")
     870                      .dwattr $C$DW$160, DW_AT_location[DW_OP_addr _cmdBuf]
     871                      .dwattr $C$DW$160, DW_AT_type(*$C$DW$T$420)
     872                      .dwattr $C$DW$160, DW_AT_external
     873                      .global _gAdcData
     874 00000028       _gAdcData:      .usect  ".ebss",14,1,1
TMS320C2000 Assembler PC v6.4.6 Thu Sep 17 14:11:15 2015

Tools Copyright (c) 1996-2015 Texas Instruments Incorporated
C:\Users\Admiral\AppData\Local\Temp\0215610                          PAGE   18

     875              $C$DW$161       .dwtag  DW_TAG_variable, DW_AT_name("gAdcData")
     876                      .dwattr $C$DW$161, DW_AT_TI_symbol_name("_gAdcData")
     877                      .dwattr $C$DW$161, DW_AT_location[DW_OP_addr _gAdcData]
     878                      .dwattr $C$DW$161, DW_AT_type(*$C$DW$T$188)
     879                      .dwattr $C$DW$161, DW_AT_external
     880                      .global _gDrvSpi8305Vars
     881 00000040       _gDrvSpi8305Vars:       .usect  ".ebss",97,1,0
     882              $C$DW$162       .dwtag  DW_TAG_variable, DW_AT_name("gDrvSpi8305Vars")
     883                      .dwattr $C$DW$162, DW_AT_TI_symbol_name("_gDrvSpi8305Vars")
     884                      .dwattr $C$DW$162, DW_AT_location[DW_OP_addr _gDrvSpi8305Vars]
     885                      .dwattr $C$DW$162, DW_AT_type(*$C$DW$T$287)
     886                      .dwattr $C$DW$162, DW_AT_external
     887                      .global _gMotorVars
     888 000000c0       _gMotorVars:    .usect  ".ebss",104,1,1
     889              $C$DW$163       .dwtag  DW_TAG_variable, DW_AT_name("gMotorVars")
     890                      .dwattr $C$DW$163, DW_AT_TI_symbol_name("_gMotorVars")
     891                      .dwattr $C$DW$163, DW_AT_location[DW_OP_addr _gMotorVars]
     892                      .dwattr $C$DW$163, DW_AT_type(*$C$DW$T$305)
     893                      .dwattr $C$DW$163, DW_AT_external
     894                      .global _gUserParams
     895 00000040       _gUserParams:   .usect  "rom_accessed_data",172,1,1
     896              $C$DW$164       .dwtag  DW_TAG_variable, DW_AT_name("gUserParams")
     897                      .dwattr $C$DW$164, DW_AT_TI_symbol_name("_gUserParams")
     898                      .dwattr $C$DW$164, DW_AT_location[DW_OP_addr _gUserParams]
     899                      .dwattr $C$DW$164, DW_AT_type(*$C$DW$T$249)
     900                      .dwattr $C$DW$164, DW_AT_external
     901              $C$DW$165       .dwtag  DW_TAG_variable, DW_AT_name("hal")
     902                      .dwattr $C$DW$165, DW_AT_TI_symbol_name("_hal")
     903                      .dwattr $C$DW$165, DW_AT_type(*$C$DW$T$294)
     904                      .dwattr $C$DW$165, DW_AT_declaration
     905                      .dwattr $C$DW$165, DW_AT_external
     906                      .global _ctrl
     907 00000100       _ctrl:  .usect  "rom_accessed_data",264,1,1
     908              $C$DW$166       .dwtag  DW_TAG_variable, DW_AT_name("ctrl")
     909                      .dwattr $C$DW$166, DW_AT_TI_symbol_name("_ctrl")
     910                      .dwattr $C$DW$166, DW_AT_location[DW_OP_addr _ctrl]
     911                      .dwattr $C$DW$166, DW_AT_type(*$C$DW$T$274)
     912                      .dwattr $C$DW$166, DW_AT_external
     913              ;       C:\ti\ccsv6\tools\compiler\ti-cgt-c2000_6.4.6\bin\opt2000.exe C:\\Users\\Admiral\\AppData\\Local\\Tem
     914              ;       C:\ti\ccsv6\tools\compiler\ti-cgt-c2000_6.4.6\bin\ac2000.exe -@C:\\Users\\Admiral\\AppData\\Local\\Te
     915 00000000               .sect   ".text"
     916                      .clink
     917                      .global _updateKpKiGains
     918              
     919              $C$DW$167       .dwtag  DW_TAG_subprogram, DW_AT_name("updateKpKiGains")
     920                      .dwattr $C$DW$167, DW_AT_low_pc(_updateKpKiGains)
     921                      .dwattr $C$DW$167, DW_AT_high_pc(0x00)
     922                      .dwattr $C$DW$167, DW_AT_TI_symbol_name("_updateKpKiGains")
     923                      .dwattr $C$DW$167, DW_AT_external
     924                      .dwattr $C$DW$167, DW_AT_TI_begin_file("../proj_lab05a.c")
     925                      .dwattr $C$DW$167, DW_AT_TI_begin_line(0x251)
     926                      .dwattr $C$DW$167, DW_AT_TI_begin_column(0x06)
     927                      .dwattr $C$DW$167, DW_AT_TI_max_frame_size(-2)
     928                      .dwpsn  file "../proj_lab05a.c",line 594,column 1,is_stmt,address _updateKpKiGains,isa 0
     929              
TMS320C2000 Assembler PC v6.4.6 Thu Sep 17 14:11:15 2015

Tools Copyright (c) 1996-2015 Texas Instruments Incorporated
C:\Users\Admiral\AppData\Local\Temp\0215610                          PAGE   19

     930                      .dwfde $C$DW$CIE, _updateKpKiGains
     931              $C$DW$168       .dwtag  DW_TAG_formal_parameter, DW_AT_name("handle")
     932                      .dwattr $C$DW$168, DW_AT_TI_symbol_name("_handle")
     933                      .dwattr $C$DW$168, DW_AT_type(*$C$DW$T$243)
     934                      .dwattr $C$DW$168, DW_AT_location[DW_OP_reg12]
     935              
     936              ;***************************************************************
     937              ;* FNAME: _updateKpKiGains              FR SIZE:   0           *
     938              ;*                                                             *
     939              ;* FUNCTION ENVIRONMENT                                        *
     940              ;*                                                             *
     941              ;* FUNCTION PROPERTIES                                         *
     942              ;*                            0 Parameter,  0 Auto,  0 SOE     *
     943              ;***************************************************************
     944              
     945              _updateKpKiGains:
     946              ;* AR4   assigned to _handle
     947              $C$DW$169       .dwtag  DW_TAG_variable, DW_AT_name("handle")
     948                      .dwattr $C$DW$169, DW_AT_TI_symbol_name("_handle")
     949                      .dwattr $C$DW$169, DW_AT_type(*$C$DW$T$276)
     950                      .dwattr $C$DW$169, DW_AT_location[DW_OP_reg12]
     951              ;* AL    assigned to _Ki
     952              $C$DW$170       .dwtag  DW_TAG_variable, DW_AT_name("Ki")
     953                      .dwattr $C$DW$170, DW_AT_TI_symbol_name("_Ki")
     954                      .dwattr $C$DW$170, DW_AT_type(*$C$DW$T$35)
     955                      .dwattr $C$DW$170, DW_AT_location[DW_OP_reg0]
     956              ;* AL    assigned to _Kp
     957              $C$DW$171       .dwtag  DW_TAG_variable, DW_AT_name("Kp")
     958                      .dwattr $C$DW$171, DW_AT_TI_symbol_name("_Kp")
     959                      .dwattr $C$DW$171, DW_AT_type(*$C$DW$T$35)
     960                      .dwattr $C$DW$171, DW_AT_location[DW_OP_reg0]
     961              ;* AL    assigned to _Ki
     962              $C$DW$172       .dwtag  DW_TAG_variable, DW_AT_name("Ki")
     963                      .dwattr $C$DW$172, DW_AT_TI_symbol_name("_Ki")
     964                      .dwattr $C$DW$172, DW_AT_type(*$C$DW$T$35)
     965                      .dwattr $C$DW$172, DW_AT_location[DW_OP_reg0]
     966              ;* AL    assigned to _Kp
     967              $C$DW$173       .dwtag  DW_TAG_variable, DW_AT_name("Kp")
     968                      .dwattr $C$DW$173, DW_AT_TI_symbol_name("_Kp")
     969                      .dwattr $C$DW$173, DW_AT_type(*$C$DW$T$35)
     970                      .dwattr $C$DW$173, DW_AT_location[DW_OP_reg0]
     971                      .dwcfi  cfa_offset, -2
     972                      .dwcfi  save_reg_to_mem, 26, 0
     973 00000000 761F-         MOVW      DP,#_gMotorVars+10    ; [CPU_U] 
         00000001 0003 
     974                      .dwpsn  file "../proj_lab05a.c",line 595,column 3,is_stmt,isa 0
     975 00000002 920A-         MOV       AL,@_gMotorVars+10    ; [CPU_] |595| 
     976 00000003 5203          CMPB      AL,#3                 ; [CPU_] |595| 
     977 00000004 ED17          BF        $C$L1,NEQ             ; [CPU_] |595| 
     978                      ; branchcc occurs ; [] |595| 
     979 00000005 9202-         MOV       AL,@_gMotorVars+2     ; [CPU_] |595| 
     980 00000006 5201          CMPB      AL,#1                 ; [CPU_] |595| 
     981 00000007 ED14          BF        $C$L1,NEQ             ; [CPU_] |595| 
     982                      ; branchcc occurs ; [] |595| 
     983 00000008 761F-         MOVW      DP,#_Flag_Latch_softwareUpdate ; [CPU_U] 
TMS320C2000 Assembler PC v6.4.6 Thu Sep 17 14:11:15 2015

Tools Copyright (c) 1996-2015 Texas Instruments Incorporated
C:\Users\Admiral\AppData\Local\Temp\0215610                          PAGE   20

         00000009 0000 
     984 0000000a 9201-         MOV       AL,@_Flag_Latch_softwareUpdate ; [CPU_] |595| 
     985 0000000b 5201          CMPB      AL,#1                 ; [CPU_] |595| 
     986 0000000c EC0F          BF        $C$L1,EQ              ; [CPU_] |595| 
     987                      ; branchcc occurs ; [] |595| 
     988 0000000d 761F-         MOVW      DP,#_gMotorVars+72    ; [CPU_U] 
         0000000e 0004 
     989                      .dwpsn  file "C:/ti/motorware/motorware_1_01_00_15/sw/modules/ctrl/src/32b/ctrl.h",line 1509,column 7
     990 0000000f D0CA          MOVB      XAR0,#202             ; [CPU_] |1509| 
     991                      .dwpsn  file "../proj_lab05a.c",line 598,column 7,is_stmt,isa 0
     992 00000010 0608-         MOVL      ACC,@_gMotorVars+72   ; [CPU_] |598| 
     993                      .dwpsn  file "C:/ti/motorware/motorware_1_01_00_15/sw/modules/ctrl/src/32b/ctrl.h",line 1509,column 7
     994 00000011 1E94          MOVL      *+XAR4[AR0],ACC       ; [CPU_] |1509| 
     995                      .dwpsn  file "C:/ti/motorware/motorware_1_01_00_15/sw/modules/ctrl/src/32b/ctrl.h",line 1484,column 7
     996 00000012 D0D0          MOVB      XAR0,#208             ; [CPU_] |1484| 
     997                      .dwpsn  file "../proj_lab05a.c",line 599,column 7,is_stmt,isa 0
     998 00000013 060A-         MOVL      ACC,@_gMotorVars+74   ; [CPU_] |599| 
     999                      .dwpsn  file "C:/ti/motorware/motorware_1_01_00_15/sw/modules/ctrl/src/32b/ctrl.h",line 1484,column 7
    1000 00000014 1E94          MOVL      *+XAR4[AR0],ACC       ; [CPU_] |1484| 
    1001                      .dwpsn  file "C:/ti/motorware/motorware_1_01_00_15/sw/modules/ctrl/src/32b/ctrl.h",line 1513,column 7
    1002 00000015 D0CC          MOVB      XAR0,#204             ; [CPU_] |1513| 
    1003                      .dwpsn  file "../proj_lab05a.c",line 600,column 7,is_stmt,isa 0
    1004 00000016 0608-         MOVL      ACC,@_gMotorVars+72   ; [CPU_] |600| 
    1005                      .dwpsn  file "C:/ti/motorware/motorware_1_01_00_15/sw/modules/ctrl/src/32b/ctrl.h",line 1513,column 7
    1006 00000017 1E94          MOVL      *+XAR4[AR0],ACC       ; [CPU_] |1513| 
    1007                      .dwpsn  file "../proj_lab05a.c",line 601,column 7,is_stmt,isa 0
    1008 00000018 060A-         MOVL      ACC,@_gMotorVars+74   ; [CPU_] |601| 
    1009                      .dwpsn  file "C:/ti/motorware/motorware_1_01_00_15/sw/modules/ctrl/src/32b/ctrl.h",line 1488,column 7
    1010 00000019 D0D2          MOVB      XAR0,#210             ; [CPU_] |1488| 
    1011 0000001a 1E94          MOVL      *+XAR4[AR0],ACC       ; [CPU_] |1488| 
    1012              $C$L1:    
    1013              $C$DW$174       .dwtag  DW_TAG_TI_branch
    1014                      .dwattr $C$DW$174, DW_AT_low_pc(0x00)
    1015                      .dwattr $C$DW$174, DW_AT_TI_return
    1016 0000001b 0006          LRETR     ; [CPU_] 
    1017                      ; return occurs ; [] 
    1018                      .dwattr $C$DW$167, DW_AT_TI_end_file("../proj_lab05a.c")
    1019                      .dwattr $C$DW$167, DW_AT_TI_end_line(0x25d)
    1020                      .dwattr $C$DW$167, DW_AT_TI_end_column(0x01)
    1021                      .dwendentry
    1022                      .dwendtag $C$DW$167
    1023              
    1024 0000001c               .sect   ".text"
    1025                      .clink
    1026                      .global _updateIqRef
    1027              
    1028              $C$DW$175       .dwtag  DW_TAG_subprogram, DW_AT_name("updateIqRef")
    1029                      .dwattr $C$DW$175, DW_AT_low_pc(_updateIqRef)
    1030                      .dwattr $C$DW$175, DW_AT_high_pc(0x00)
    1031                      .dwattr $C$DW$175, DW_AT_TI_symbol_name("_updateIqRef")
    1032                      .dwattr $C$DW$175, DW_AT_external
    1033                      .dwattr $C$DW$175, DW_AT_TI_begin_file("../proj_lab05a.c")
    1034                      .dwattr $C$DW$175, DW_AT_TI_begin_line(0x239)
    1035                      .dwattr $C$DW$175, DW_AT_TI_begin_column(0x06)
    1036                      .dwattr $C$DW$175, DW_AT_TI_max_frame_size(-6)
TMS320C2000 Assembler PC v6.4.6 Thu Sep 17 14:11:15 2015

Tools Copyright (c) 1996-2015 Texas Instruments Incorporated
C:\Users\Admiral\AppData\Local\Temp\0215610                          PAGE   21

    1037                      .dwpsn  file "../proj_lab05a.c",line 570,column 1,is_stmt,address _updateIqRef,isa 0
    1038              
    1039                      .dwfde $C$DW$CIE, _updateIqRef
    1040              $C$DW$176       .dwtag  DW_TAG_formal_parameter, DW_AT_name("handle")
    1041                      .dwattr $C$DW$176, DW_AT_TI_symbol_name("_handle")
    1042                      .dwattr $C$DW$176, DW_AT_type(*$C$DW$T$243)
    1043                      .dwattr $C$DW$176, DW_AT_location[DW_OP_reg12]
    1044              
    1045              ;***************************************************************
    1046              ;* FNAME: _updateIqRef                  FR SIZE:   4           *
    1047              ;*                                                             *
    1048              ;* FUNCTION ENVIRONMENT                                        *
    1049              ;*                                                             *
    1050              ;* FUNCTION PROPERTIES                                         *
    1051              ;*                            0 Parameter,  0 Auto,  4 SOE     *
    1052              ;***************************************************************
    1053              
    1054              _updateIqRef:
    1055              ;* AR1   assigned to _iq_ref
    1056              $C$DW$177       .dwtag  DW_TAG_variable, DW_AT_name("iq_ref")
    1057                      .dwattr $C$DW$177, DW_AT_TI_symbol_name("_iq_ref")
    1058                      .dwattr $C$DW$177, DW_AT_type(*$C$DW$T$35)
    1059                      .dwattr $C$DW$177, DW_AT_location[DW_OP_reg6]
    1060              ;* AR2   assigned to _handle
    1061              $C$DW$178       .dwtag  DW_TAG_variable, DW_AT_name("handle")
    1062                      .dwattr $C$DW$178, DW_AT_TI_symbol_name("_handle")
    1063                      .dwattr $C$DW$178, DW_AT_type(*$C$DW$T$276)
    1064                      .dwattr $C$DW$178, DW_AT_location[DW_OP_reg8]
    1065                      .dwcfi  cfa_offset, -2
    1066                      .dwcfi  save_reg_to_mem, 26, 0
    1067 0000001c 761F-         MOVW      DP,#_gMotorVars+20    ; [CPU_U] 
         0000001d 0003 
    1068 0000001e B2BD          MOVL      *SP++,XAR1            ; [CPU_] 
    1069                      .dwcfi  save_reg_to_mem, 7, 2
    1070                      .dwcfi  cfa_offset, -4
    1071                      .dwpsn  file "../proj_lab05a.c",line 571,column 14,is_stmt,isa 0
    1072 0000001f 8714-         MOVL      XT,@_gMotorVars+20    ; [CPU_] |571| 
    1073 00000020 AABD          MOVL      *SP++,XAR2            ; [CPU_] 
    1074                      .dwcfi  save_reg_to_mem, 9, 4
    1075                      .dwcfi  cfa_offset, -6
    1076                      .dwpsn  file "../proj_lab05a.c",line 570,column 1,is_stmt,isa 0
    1077 00000021 86A4          MOVL      XAR2,XAR4             ; [CPU_] |570| 
    1078                      .dwpsn  file "../proj_lab05a.c",line 571,column 14,is_stmt,isa 0
    1079 00000022 8F0C          MOVL      XAR4,#838860          ; [CPU_U] |571| 
         00000023 CCCC 
    1080 00000024 5605          IMPYL     P,XT,XAR4             ; [CPU_] |571| 
         00000025 00A4 
    1081 00000026 5663          QMPYL     ACC,XT,XAR4           ; [CPU_] |571| 
         00000027 00A4 
    1082                      .dwpsn  file "../proj_lab05a.c",line 574,column 3,is_stmt,isa 0
    1083 00000028 8F02          MOVL      XAR4,#167772          ; [CPU_U] |574| 
         00000029 8F5C 
    1084                      .dwpsn  file "../proj_lab05a.c",line 571,column 14,is_stmt,isa 0
    1085 0000002a 56A7          LSL64     ACC:P,#8              ; [CPU_] |571| 
    1086 0000002b 8BA9          MOVL      XAR1,ACC              ; [CPU_] |571| 
TMS320C2000 Assembler PC v6.4.6 Thu Sep 17 14:11:15 2015

Tools Copyright (c) 1996-2015 Texas Instruments Incorporated
C:\Users\Admiral\AppData\Local\Temp\0215610                          PAGE   22

    1087                      .dwpsn  file "../proj_lab05a.c",line 574,column 3,is_stmt,isa 0
    1088 0000002c 061E-         MOVL      ACC,@_gMotorVars+30   ; [CPU_] |574| 
    1089 0000002d FF56          ABS       ACC                   ; [CPU_] |574| 
    1090 0000002e 0FA4          CMPL      ACC,XAR4              ; [CPU_] |574| 
    1091 0000002f 56C3          BF        $C$L4,GEQ             ; [CPU_] |574| 
         00000030 0013 
    1092                      ; branchcc occurs ; [] |574| 
    1093 00000031 B2A9          MOVL      ACC,XAR1              ; [CPU_] 
    1094                      .dwpsn  file "../proj_lab05a.c",line 576,column 7,is_stmt,isa 0
    1095 00000032 56C4          BF        $C$L2,LT              ; [CPU_] |576| 
         00000033 0009 
    1096                      ; branchcc occurs ; [] |576| 
    1097                      .dwpsn  file "../proj_lab05a.c",line 580,column 12,is_stmt,isa 0
    1098 00000034 FF58          TEST      ACC                   ; [CPU_] |580| 
    1099 00000035 56C5          BF        $C$L4,LEQ             ; [CPU_] |580| 
         00000036 000D 
    1100                      ; branchcc occurs ; [] |580| 
    1101                      .dwpsn  file "../proj_lab05a.c",line 582,column 11,is_stmt,isa 0
    1102 00000037 8F42          MOVL      XAR5,#167772          ; [CPU_U] |582| 
         00000038 8F5C 
    1103 00000039 A0A9          MOVL      ACC,XAR5              ; [CPU_] |582| 
    1104 0000003a 6F05          B         $C$L3,UNC             ; [CPU_] |582| 
    1105                      ; branch occurs ; [] |582| 
    1106 0000003b       $C$L2:    
    1107                      .dwpsn  file "../proj_lab05a.c",line 578,column 11,is_stmt,isa 0
    1108 0000003b 28A9          MOV       AL,#28836             ; [CPU_] |578| 
         0000003c 70A4 
    1109 0000003d 28A8          MOV       AH,#65533             ; [CPU_] |578| 
         0000003e FFFD 
    1110 0000003f       $C$L3:    
    1111 0000003f 8AA2          MOVL      XAR4,XAR2             ; [CPU_] |578| 
    1112              $C$DW$179       .dwtag  DW_TAG_TI_branch
    1113                      .dwattr $C$DW$179, DW_AT_low_pc(0x00)
    1114                      .dwattr $C$DW$179, DW_AT_name("_CTRL_setSpd_ref_krpm")
    1115                      .dwattr $C$DW$179, DW_AT_TI_call
    1116 00000040 7640!         LCR       #_CTRL_setSpd_ref_krpm ; [CPU_] |578| 
         00000041 0000 
    1117                      ; call occurs [#_CTRL_setSpd_ref_krpm] ; [] |578| 
    1118 00000042       $C$L4:    
    1119                      .dwpsn  file "C:/ti/motorware/motorware_1_01_00_15/sw/modules/ctrl/src/32b/ctrl.h",line 1439,column 3
    1120 00000042 D0E4          MOVB      XAR0,#228             ; [CPU_] |1439| 
    1121 00000043 B292          MOVL      *+XAR2[AR0],XAR1      ; [CPU_] |1439| 
    1122 00000044 86BE          MOVL      XAR2,*--SP            ; [CPU_] 
    1123                      .dwcfi  cfa_offset, -4
    1124                      .dwcfi  restore_reg, 9
    1125 00000045 8BBE          MOVL      XAR1,*--SP            ; [CPU_] 
    1126                      .dwcfi  cfa_offset, -2
    1127                      .dwcfi  restore_reg, 7
    1128              $C$DW$180       .dwtag  DW_TAG_TI_branch
    1129                      .dwattr $C$DW$180, DW_AT_low_pc(0x00)
    1130                      .dwattr $C$DW$180, DW_AT_TI_return
    1131 00000046 0006          LRETR     ; [CPU_] 
    1132                      ; return occurs ; [] 
    1133                      .dwattr $C$DW$175, DW_AT_TI_end_file("../proj_lab05a.c")
    1134                      .dwattr $C$DW$175, DW_AT_TI_end_line(0x24e)
TMS320C2000 Assembler PC v6.4.6 Thu Sep 17 14:11:15 2015

Tools Copyright (c) 1996-2015 Texas Instruments Incorporated
C:\Users\Admiral\AppData\Local\Temp\0215610                          PAGE   23

    1135                      .dwattr $C$DW$175, DW_AT_TI_end_column(0x01)
    1136                      .dwendentry
    1137                      .dwendtag $C$DW$175
    1138              
    1139 00000047               .sect   ".text"
    1140                      .clink
    1141                      .global _updateGlobalVariables_motor
    1142              
    1143              $C$DW$181       .dwtag  DW_TAG_subprogram, DW_AT_name("updateGlobalVariables_motor")
    1144                      .dwattr $C$DW$181, DW_AT_low_pc(_updateGlobalVariables_motor)
    1145                      .dwattr $C$DW$181, DW_AT_high_pc(0x00)
    1146                      .dwattr $C$DW$181, DW_AT_TI_symbol_name("_updateGlobalVariables_motor")
    1147                      .dwattr $C$DW$181, DW_AT_external
    1148                      .dwattr $C$DW$181, DW_AT_TI_begin_file("../proj_lab05a.c")
    1149                      .dwattr $C$DW$181, DW_AT_TI_begin_line(0x1fc)
    1150                      .dwattr $C$DW$181, DW_AT_TI_begin_column(0x06)
    1151                      .dwattr $C$DW$181, DW_AT_TI_max_frame_size(-8)
    1152                      .dwpsn  file "../proj_lab05a.c",line 509,column 1,is_stmt,address _updateGlobalVariables_motor,isa 0
    1153              
    1154                      .dwfde $C$DW$CIE, _updateGlobalVariables_motor
    1155              $C$DW$182       .dwtag  DW_TAG_formal_parameter, DW_AT_name("handle")
    1156                      .dwattr $C$DW$182, DW_AT_TI_symbol_name("_handle")
    1157                      .dwattr $C$DW$182, DW_AT_type(*$C$DW$T$243)
    1158                      .dwattr $C$DW$182, DW_AT_location[DW_OP_reg12]
    1159              
    1160              ;***************************************************************
    1161              ;* FNAME: _updateGlobalVariables_motor  FR SIZE:   6           *
    1162              ;*                                                             *
    1163              ;* FUNCTION ENVIRONMENT                                        *
    1164              ;*                                                             *
    1165              ;* FUNCTION PROPERTIES                                         *
    1166              ;*                            2 Parameter,  0 Auto,  4 SOE     *
    1167              ;***************************************************************
    1168              
    1169              _updateGlobalVariables_motor:
    1170              ;* AR4   assigned to $O$C7
    1171              ;* AR4   assigned to $O$C8
    1172              ;* XT    assigned to $O$R6
    1173              ;* AR2   assigned to _handle
    1174              $C$DW$183       .dwtag  DW_TAG_variable, DW_AT_name("handle")
    1175                      .dwattr $C$DW$183, DW_AT_TI_symbol_name("_handle")
    1176                      .dwattr $C$DW$183, DW_AT_type(*$C$DW$T$276)
    1177                      .dwattr $C$DW$183, DW_AT_location[DW_OP_reg8]
    1178                      .dwcfi  cfa_offset, -2
    1179                      .dwcfi  save_reg_to_mem, 26, 0
    1180 00000047 B2BD          MOVL      *SP++,XAR1            ; [CPU_] 
    1181                      .dwcfi  save_reg_to_mem, 7, 2
    1182                      .dwcfi  cfa_offset, -4
    1183 00000048 AABD          MOVL      *SP++,XAR2            ; [CPU_] 
    1184                      .dwcfi  save_reg_to_mem, 9, 4
    1185                      .dwcfi  cfa_offset, -6
    1186 00000049 FE02          ADDB      SP,#2                 ; [CPU_U] 
    1187                      .dwcfi  cfa_offset, -8
    1188 0000004a 86A4          MOVL      XAR2,XAR4             ; [CPU_] |509| 
    1189                      .dwpsn  file "../proj_lab05a.c",line 513,column 3,is_stmt,isa 0
TMS320C2000 Assembler PC v6.4.6 Thu Sep 17 14:11:15 2015

Tools Copyright (c) 1996-2015 Texas Instruments Incorporated
C:\Users\Admiral\AppData\Local\Temp\0215610                          PAGE   24

    1190 0000004b D018          MOVB      XAR0,#24              ; [CPU_] |513| 
    1191 0000004c 8A92          MOVL      XAR4,*+XAR2[AR0]      ; [CPU_] |513| 
    1192              $C$DW$184       .dwtag  DW_TAG_TI_branch
    1193                      .dwattr $C$DW$184, DW_AT_low_pc(0x00)
    1194                      .dwattr $C$DW$184, DW_AT_name("_EST_getSpeed_krpm")
    1195                      .dwattr $C$DW$184, DW_AT_TI_call
    1196 0000004d 7640!         LCR       #_EST_getSpeed_krpm   ; [CPU_] |513| 
         0000004e 0000 
    1197                      ; call occurs [#_EST_getSpeed_krpm] ; [] |513| 
    1198 0000004f 761F-         MOVW      DP,#_gMotorVars+30    ; [CPU_U] 
         00000050 0003 
    1199                      .dwpsn  file "C:/ti/motorware/motorware_1_01_00_15/sw/modules/traj/src/32b/traj.h",line 96,column 3,i
    1200 00000051 D06C          MOVB      XAR0,#108             ; [CPU_] |96| 
    1201                      .dwpsn  file "../proj_lab05a.c",line 513,column 3,is_stmt,isa 0
    1202 00000052 1E1E-         MOVL      @_gMotorVars+30,ACC   ; [CPU_] |513| 
    1203                      .dwpsn  file "C:/ti/motorware/motorware_1_01_00_15/sw/modules/traj/src/32b/traj.h",line 96,column 3,i
    1204 00000053 8A92          MOVL      XAR4,*+XAR2[AR0]      ; [CPU_] |96| 
    1205                      .dwpsn  file "../proj_lab05a.c",line 516,column 3,is_stmt,isa 0
    1206 00000054 D018          MOVB      XAR0,#24              ; [CPU_] |516| 
    1207                      .dwpsn  file "C:/ti/motorware/motorware_1_01_00_15/sw/modules/traj/src/32b/traj.h",line 96,column 3,i
    1208 00000055 8BD4          MOVL      XAR1,*+XAR4[2]        ; [CPU_] |96| 
    1209                      .dwpsn  file "../proj_lab05a.c",line 516,column 3,is_stmt,isa 0
    1210 00000056 8A92          MOVL      XAR4,*+XAR2[AR0]      ; [CPU_] |516| 
    1211              $C$DW$185       .dwtag  DW_TAG_TI_branch
    1212                      .dwattr $C$DW$185, DW_AT_low_pc(0x00)
    1213                      .dwattr $C$DW$185, DW_AT_name("_EST_get_pu_to_krpm_sf")
    1214                      .dwattr $C$DW$185, DW_AT_TI_call
    1215 00000057 7640!         LCR       #_EST_get_pu_to_krpm_sf ; [CPU_] |516| 
         00000058 0000 
    1216                      ; call occurs [#_EST_get_pu_to_krpm_sf] ; [] |516| 
    1217 00000059 761F-         MOVW      DP,#_gMotorVars+26    ; [CPU_U] 
         0000005a 0003 
    1218 0000005b B2AC          MOVL      XT,XAR1               ; [CPU_] |516| 
    1219                      .dwpsn  file "../proj_lab05a.c",line 519,column 3,is_stmt,isa 0
    1220 0000005c 8AA2          MOVL      XAR4,XAR2             ; [CPU_] |519| 
    1221                      .dwpsn  file "../proj_lab05a.c",line 516,column 3,is_stmt,isa 0
    1222 0000005d 5605          IMPYL     P,XT,ACC              ; [CPU_] |516| 
         0000005e 00A9 
    1223 0000005f 5663          QMPYL     ACC,XT,ACC            ; [CPU_] |516| 
         00000060 00A9 
    1224 00000061 56A7          LSL64     ACC:P,#8              ; [CPU_] |516| 
    1225 00000062 1E1A-         MOVL      @_gMotorVars+26,ACC   ; [CPU_] |516| 
    1226 00000063 761F-         MOVW      DP,#_gTorque_Ls_Id_Iq_pu_to_Nm_sf ; [CPU_U] 
         00000064 0000 
    1227                      .dwpsn  file "../proj_lab05a.c",line 519,column 3,is_stmt,isa 0
    1228 00000065 0612-         MOVL      ACC,@_gTorque_Ls_Id_Iq_pu_to_Nm_sf ; [CPU_] |519| 
    1229 00000066 1E42          MOVL      *-SP[2],ACC           ; [CPU_] |519| 
    1230 00000067 0606-         MOVL      ACC,@_gTorque_Flux_Iq_pu_to_Nm_sf ; [CPU_] |519| 
    1231              $C$DW$186       .dwtag  DW_TAG_TI_branch
    1232                      .dwattr $C$DW$186, DW_AT_low_pc(0x00)
    1233                      .dwattr $C$DW$186, DW_AT_name("_USER_computeTorque_Nm")
    1234                      .dwattr $C$DW$186, DW_AT_TI_call
    1235 00000068 7640!         LCR       #_USER_computeTorque_Nm ; [CPU_] |519| 
         00000069 0000 
    1236                      ; call occurs [#_USER_computeTorque_Nm] ; [] |519| 
TMS320C2000 Assembler PC v6.4.6 Thu Sep 17 14:11:15 2015

Tools Copyright (c) 1996-2015 Texas Instruments Incorporated
C:\Users\Admiral\AppData\Local\Temp\0215610                          PAGE   25

    1237 0000006a 761F-         MOVW      DP,#_gMotorVars+40    ; [CPU_U] 
         0000006b 0003 
    1238                      .dwpsn  file "../proj_lab05a.c",line 522,column 3,is_stmt,isa 0
    1239 0000006c D018          MOVB      XAR0,#24              ; [CPU_] |522| 
    1240                      .dwpsn  file "../proj_lab05a.c",line 519,column 3,is_stmt,isa 0
    1241 0000006d 1E28-         MOVL      @_gMotorVars+40,ACC   ; [CPU_] |519| 
    1242                      .dwpsn  file "../proj_lab05a.c",line 522,column 3,is_stmt,isa 0
    1243 0000006e 8A92          MOVL      XAR4,*+XAR2[AR0]      ; [CPU_] |522| 
    1244              $C$DW$187       .dwtag  DW_TAG_TI_branch
    1245                      .dwattr $C$DW$187, DW_AT_low_pc(0x00)
    1246                      .dwattr $C$DW$187, DW_AT_name("_EST_getIdRated")
    1247                      .dwattr $C$DW$187, DW_AT_TI_call
    1248 0000006f 7640!         LCR       #_EST_getIdRated      ; [CPU_] |522| 
         00000070 0000 
    1249                      ; call occurs [#_EST_getIdRated] ; [] |522| 
    1250 00000071 761F-         MOVW      DP,#_gMotorVars+42    ; [CPU_U] 
         00000072 0003 
    1251                      .dwpsn  file "../proj_lab05a.c",line 525,column 3,is_stmt,isa 0
    1252 00000073 D018          MOVB      XAR0,#24              ; [CPU_] |525| 
    1253                      .dwpsn  file "../proj_lab05a.c",line 522,column 3,is_stmt,isa 0
    1254 00000074 1E2A-         MOVL      @_gMotorVars+42,ACC   ; [CPU_] |522| 
    1255                      .dwpsn  file "../proj_lab05a.c",line 525,column 3,is_stmt,isa 0
    1256 00000075 8A92          MOVL      XAR4,*+XAR2[AR0]      ; [CPU_] |525| 
    1257              $C$DW$188       .dwtag  DW_TAG_TI_branch
    1258                      .dwattr $C$DW$188, DW_AT_low_pc(0x00)
    1259                      .dwattr $C$DW$188, DW_AT_name("_EST_getRr_Ohm")
    1260                      .dwattr $C$DW$188, DW_AT_TI_call
    1261 00000076 7640!         LCR       #_EST_getRr_Ohm       ; [CPU_] |525| 
         00000077 0000 
    1262                      ; call occurs [#_EST_getRr_Ohm] ; [] |525| 
    1263 00000078 761F-         MOVW      DP,#_gMotorVars+44    ; [CPU_U] 
         00000079 0003 
    1264                      .dwpsn  file "../proj_lab05a.c",line 528,column 3,is_stmt,isa 0
    1265 0000007a D018          MOVB      XAR0,#24              ; [CPU_] |528| 
    1266                      .dwpsn  file "../proj_lab05a.c",line 525,column 3,is_stmt,isa 0
    1267 0000007b 1E2C-         MOVL      @_gMotorVars+44,ACC   ; [CPU_] |525| 
    1268                      .dwpsn  file "../proj_lab05a.c",line 528,column 3,is_stmt,isa 0
    1269 0000007c 8A92          MOVL      XAR4,*+XAR2[AR0]      ; [CPU_] |528| 
    1270              $C$DW$189       .dwtag  DW_TAG_TI_branch
    1271                      .dwattr $C$DW$189, DW_AT_low_pc(0x00)
    1272                      .dwattr $C$DW$189, DW_AT_name("_EST_getRs_Ohm")
    1273                      .dwattr $C$DW$189, DW_AT_TI_call
    1274 0000007d 7640!         LCR       #_EST_getRs_Ohm       ; [CPU_] |528| 
         0000007e 0000 
    1275                      ; call occurs [#_EST_getRs_Ohm] ; [] |528| 
    1276 0000007f 761F-         MOVW      DP,#_gMotorVars+46    ; [CPU_U] 
         00000080 0003 
    1277                      .dwpsn  file "../proj_lab05a.c",line 531,column 3,is_stmt,isa 0
    1278 00000081 D018          MOVB      XAR0,#24              ; [CPU_] |531| 
    1279                      .dwpsn  file "../proj_lab05a.c",line 528,column 3,is_stmt,isa 0
    1280 00000082 1E2E-         MOVL      @_gMotorVars+46,ACC   ; [CPU_] |528| 
    1281                      .dwpsn  file "../proj_lab05a.c",line 531,column 3,is_stmt,isa 0
    1282 00000083 8A92          MOVL      XAR4,*+XAR2[AR0]      ; [CPU_] |531| 
    1283              $C$DW$190       .dwtag  DW_TAG_TI_branch
    1284                      .dwattr $C$DW$190, DW_AT_low_pc(0x00)
TMS320C2000 Assembler PC v6.4.6 Thu Sep 17 14:11:15 2015

Tools Copyright (c) 1996-2015 Texas Instruments Incorporated
C:\Users\Admiral\AppData\Local\Temp\0215610                          PAGE   26

    1285                      .dwattr $C$DW$190, DW_AT_name("_EST_getLs_d_H")
    1286                      .dwattr $C$DW$190, DW_AT_TI_call
    1287 00000084 7640!         LCR       #_EST_getLs_d_H       ; [CPU_] |531| 
         00000085 0000 
    1288                      ; call occurs [#_EST_getLs_d_H] ; [] |531| 
    1289 00000086 761F-         MOVW      DP,#_gMotorVars+50    ; [CPU_U] 
         00000087 0003 
    1290                      .dwpsn  file "../proj_lab05a.c",line 534,column 3,is_stmt,isa 0
    1291 00000088 D018          MOVB      XAR0,#24              ; [CPU_] |534| 
    1292                      .dwpsn  file "../proj_lab05a.c",line 531,column 3,is_stmt,isa 0
    1293 00000089 1E32-         MOVL      @_gMotorVars+50,ACC   ; [CPU_] |531| 
    1294                      .dwpsn  file "../proj_lab05a.c",line 534,column 3,is_stmt,isa 0
    1295 0000008a 8A92          MOVL      XAR4,*+XAR2[AR0]      ; [CPU_] |534| 
    1296              $C$DW$191       .dwtag  DW_TAG_TI_branch
    1297                      .dwattr $C$DW$191, DW_AT_low_pc(0x00)
    1298                      .dwattr $C$DW$191, DW_AT_name("_EST_getLs_q_H")
    1299                      .dwattr $C$DW$191, DW_AT_TI_call
    1300 0000008b 7640!         LCR       #_EST_getLs_q_H       ; [CPU_] |534| 
         0000008c 0000 
    1301                      ; call occurs [#_EST_getLs_q_H] ; [] |534| 
    1302 0000008d 761F-         MOVW      DP,#_gMotorVars+52    ; [CPU_U] 
         0000008e 0003 
    1303                      .dwpsn  file "../proj_lab05a.c",line 537,column 3,is_stmt,isa 0
    1304 0000008f D018          MOVB      XAR0,#24              ; [CPU_] |537| 
    1305                      .dwpsn  file "../proj_lab05a.c",line 534,column 3,is_stmt,isa 0
    1306 00000090 1E34-         MOVL      @_gMotorVars+52,ACC   ; [CPU_] |534| 
    1307                      .dwpsn  file "../proj_lab05a.c",line 537,column 3,is_stmt,isa 0
    1308 00000091 8A92          MOVL      XAR4,*+XAR2[AR0]      ; [CPU_] |537| 
    1309              $C$DW$192       .dwtag  DW_TAG_TI_branch
    1310                      .dwattr $C$DW$192, DW_AT_low_pc(0x00)
    1311                      .dwattr $C$DW$192, DW_AT_name("_EST_getFlux_VpHz")
    1312                      .dwattr $C$DW$192, DW_AT_TI_call
    1313 00000092 7640!         LCR       #_EST_getFlux_VpHz    ; [CPU_] |537| 
         00000093 0000 
    1314                      ; call occurs [#_EST_getFlux_VpHz] ; [] |537| 
    1315 00000094 761F-         MOVW      DP,#_gMotorVars+54    ; [CPU_U] 
         00000095 0003 
    1316 00000096 1E36-         MOVL      @_gMotorVars+54,ACC   ; [CPU_] |537| 
    1317                      .dwpsn  file "../proj_lab05a.c",line 540,column 3,is_stmt,isa 0
    1318 00000097 8AA2          MOVL      XAR4,XAR2             ; [CPU_] |540| 
    1319 00000098 761F-         MOVW      DP,#_gFlux_pu_to_Wb_sf ; [CPU_U] 
         00000099 0000 
    1320 0000009a 0614-         MOVL      ACC,@_gFlux_pu_to_Wb_sf ; [CPU_] |540| 
    1321              $C$DW$193       .dwtag  DW_TAG_TI_branch
    1322                      .dwattr $C$DW$193, DW_AT_low_pc(0x00)
    1323                      .dwattr $C$DW$193, DW_AT_name("_USER_computeFlux")
    1324                      .dwattr $C$DW$193, DW_AT_TI_call
    1325 0000009b 7640!         LCR       #_USER_computeFlux    ; [CPU_] |540| 
         0000009c 0000 
    1326                      ; call occurs [#_USER_computeFlux] ; [] |540| 
    1327 0000009d 761F-         MOVW      DP,#_gMotorVars+38    ; [CPU_U] 
         0000009e 0003 
    1328                      .dwpsn  file "../proj_lab05a.c",line 546,column 3,is_stmt,isa 0
    1329 0000009f D018          MOVB      XAR0,#24              ; [CPU_] |546| 
    1330                      .dwpsn  file "../proj_lab05a.c",line 540,column 3,is_stmt,isa 0
TMS320C2000 Assembler PC v6.4.6 Thu Sep 17 14:11:15 2015

Tools Copyright (c) 1996-2015 Texas Instruments Incorporated
C:\Users\Admiral\AppData\Local\Temp\0215610                          PAGE   27

    1331 000000a0 1E26-         MOVL      @_gMotorVars+38,ACC   ; [CPU_] |540| 
    1332                      .dwpsn  file "../proj_lab05a.c",line 543,column 3,is_stmt,isa 0
    1333 000000a1 92E2          MOV       AL,*+XAR2[4]          ; [CPU_] |543| 
    1334 000000a2 960A-         MOV       @_gMotorVars+10,AL    ; [CPU_] |543| 
    1335                      .dwpsn  file "../proj_lab05a.c",line 546,column 3,is_stmt,isa 0
    1336 000000a3 8A92          MOVL      XAR4,*+XAR2[AR0]      ; [CPU_] |546| 
    1337              $C$DW$194       .dwtag  DW_TAG_TI_branch
    1338                      .dwattr $C$DW$194, DW_AT_low_pc(0x00)
    1339                      .dwattr $C$DW$194, DW_AT_name("_EST_getState")
    1340                      .dwattr $C$DW$194, DW_AT_TI_call
    1341 000000a4 7640!         LCR       #_EST_getState        ; [CPU_] |546| 
         000000a5 0000 
    1342                      ; call occurs [#_EST_getState] ; [] |546| 
    1343 000000a6 761F-         MOVW      DP,#_gMotorVars+11    ; [CPU_U] 
         000000a7 0003 
    1344 000000a8 960B-         MOV       @_gMotorVars+11,AL    ; [CPU_] |546| 
    1345 000000a9 761F-         MOVW      DP,#_ctrlHandle       ; [CPU_U] 
         000000aa 0000 
    1346                      .dwpsn  file "../proj_lab05a.c",line 549,column 3,is_stmt,isa 0
    1347 000000ab 8A0C-         MOVL      XAR4,@_ctrlHandle     ; [CPU_] |549| 
    1348 000000ac D0C0          MOVB      XAR0,#192             ; [CPU_] |549| 
    1349 000000ad 761F-         MOVW      DP,#_gMotorVars+76    ; [CPU_U] 
         000000ae 0004 
    1350 000000af 0694          MOVL      ACC,*+XAR4[AR0]       ; [CPU_] |549| 
    1351                      .dwpsn  file "../proj_lab05a.c",line 550,column 3,is_stmt,isa 0
    1352 000000b0 D0C2          MOVB      XAR0,#194             ; [CPU_] |550| 
    1353                      .dwpsn  file "../proj_lab05a.c",line 549,column 3,is_stmt,isa 0
    1354 000000b1 1E0C-         MOVL      @_gMotorVars+76,ACC   ; [CPU_] |549| 
    1355                      .dwpsn  file "../proj_lab05a.c",line 550,column 3,is_stmt,isa 0
    1356 000000b2 0694          MOVL      ACC,*+XAR4[AR0]       ; [CPU_] |550| 
    1357 000000b3 1E0E-         MOVL      @_gMotorVars+78,ACC   ; [CPU_] |550| 
    1358                      .dwpsn  file "../proj_lab05a.c",line 553,column 3,is_stmt,isa 0
    1359 000000b4 870C-         MOVL      XT,@_gMotorVars+76    ; [CPU_] |553| 
    1360 000000b5 5605-         IMPYL     P,XT,@_gMotorVars+76  ; [CPU_] |553| 
         000000b6 000C 
    1361 000000b7 5663-         QMPYL     ACC,XT,@_gMotorVars+76 ; [CPU_] |553| 
         000000b8 000C 
    1362 000000b9 56A7          LSL64     ACC:P,#8              ; [CPU_] |553| 
    1363 000000ba 1EA6          MOVL      XAR6,ACC              ; [CPU_] |553| 
    1364 000000bb 870E-         MOVL      XT,@_gMotorVars+78    ; [CPU_] |553| 
    1365 000000bc 5605-         IMPYL     P,XT,@_gMotorVars+78  ; [CPU_] |553| 
         000000bd 000E 
    1366 000000be 5663-         QMPYL     ACC,XT,@_gMotorVars+78 ; [CPU_] |553| 
         000000bf 000E 
    1367 000000c0 56A7          LSL64     ACC:P,#8              ; [CPU_] |553| 
    1368 000000c1 07A6          ADDL      ACC,XAR6              ; [CPU_] |553| 
    1369              $C$DW$195       .dwtag  DW_TAG_TI_branch
    1370                      .dwattr $C$DW$195, DW_AT_low_pc(0x00)
    1371                      .dwattr $C$DW$195, DW_AT_name("__IQ24sqrt")
    1372                      .dwattr $C$DW$195, DW_AT_TI_call
    1373 000000c2 7640!         LCR       #__IQ24sqrt           ; [CPU_] |553| 
         000000c3 0000 
    1374                      ; call occurs [#__IQ24sqrt] ; [] |553| 
    1375 000000c4 761F-         MOVW      DP,#_gMotorVars+80    ; [CPU_U] 
         000000c5 0004 
TMS320C2000 Assembler PC v6.4.6 Thu Sep 17 14:11:15 2015

Tools Copyright (c) 1996-2015 Texas Instruments Incorporated
C:\Users\Admiral\AppData\Local\Temp\0215610                          PAGE   28

    1376 000000c6 1E10-         MOVL      @_gMotorVars+80,ACC   ; [CPU_] |553| 
    1377 000000c7 761F-         MOVW      DP,#_ctrlHandle       ; [CPU_U] 
         000000c8 0000 
    1378                      .dwpsn  file "../proj_lab05a.c",line 556,column 3,is_stmt,isa 0
    1379 000000c9 8A0C-         MOVL      XAR4,@_ctrlHandle     ; [CPU_] |556| 
    1380 000000ca D0B2          MOVB      XAR0,#178             ; [CPU_] |556| 
    1381 000000cb FF2F          MOV       ACC,#10240 << 15      ; [CPU_] |556| 
         000000cc 2800 
    1382 000000cd 761F-         MOVW      DP,#_gMotorVars+86    ; [CPU_U] 
         000000ce 0004 
    1383 000000cf 8794          MOVL      XT,*+XAR4[AR0]        ; [CPU_] |556| 
    1384                      .dwpsn  file "../proj_lab05a.c",line 557,column 3,is_stmt,isa 0
    1385 000000d0 D0B4          MOVB      XAR0,#180             ; [CPU_] |557| 
    1386                      .dwpsn  file "../proj_lab05a.c",line 556,column 3,is_stmt,isa 0
    1387 000000d1 5605          IMPYL     P,XT,ACC              ; [CPU_] |556| 
         000000d2 00A9 
    1388 000000d3 5663          QMPYL     ACC,XT,ACC            ; [CPU_] |556| 
         000000d4 00A9 
    1389 000000d5 56A7          LSL64     ACC:P,#8              ; [CPU_] |556| 
    1390 000000d6 1E16-         MOVL      @_gMotorVars+86,ACC   ; [CPU_] |556| 
    1391                      .dwpsn  file "../proj_lab05a.c",line 557,column 3,is_stmt,isa 0
    1392 000000d7 FF2F          MOV       ACC,#10240 << 15      ; [CPU_] |557| 
         000000d8 2800 
    1393 000000d9 8794          MOVL      XT,*+XAR4[AR0]        ; [CPU_] |557| 
    1394 000000da 5605          IMPYL     P,XT,ACC              ; [CPU_] |557| 
         000000db 00A9 
    1395 000000dc 5663          QMPYL     ACC,XT,ACC            ; [CPU_] |557| 
         000000dd 00A9 
    1396 000000de 56A7          LSL64     ACC:P,#8              ; [CPU_] |557| 
    1397 000000df 1E18-         MOVL      @_gMotorVars+88,ACC   ; [CPU_] |557| 
    1398                      .dwpsn  file "../proj_lab05a.c",line 560,column 3,is_stmt,isa 0
    1399 000000e0 8716-         MOVL      XT,@_gMotorVars+86    ; [CPU_] |560| 
    1400 000000e1 5605-         IMPYL     P,XT,@_gMotorVars+86  ; [CPU_] |560| 
         000000e2 0016 
    1401 000000e3 5663-         QMPYL     ACC,XT,@_gMotorVars+86 ; [CPU_] |560| 
         000000e4 0016 
    1402 000000e5 56A7          LSL64     ACC:P,#8              ; [CPU_] |560| 
    1403 000000e6 8718-         MOVL      XT,@_gMotorVars+88    ; [CPU_] |560| 
    1404 000000e7 1EA6          MOVL      XAR6,ACC              ; [CPU_] |560| 
    1405 000000e8 5605-         IMPYL     P,XT,@_gMotorVars+88  ; [CPU_] |560| 
         000000e9 0018 
    1406 000000ea 5663-         QMPYL     ACC,XT,@_gMotorVars+88 ; [CPU_] |560| 
         000000eb 0018 
    1407 000000ec 56A7          LSL64     ACC:P,#8              ; [CPU_] |560| 
    1408 000000ed 07A6          ADDL      ACC,XAR6              ; [CPU_] |560| 
    1409              $C$DW$196       .dwtag  DW_TAG_TI_branch
    1410                      .dwattr $C$DW$196, DW_AT_low_pc(0x00)
    1411                      .dwattr $C$DW$196, DW_AT_name("__IQ24sqrt")
    1412                      .dwattr $C$DW$196, DW_AT_TI_call
    1413 000000ee 7640!         LCR       #__IQ24sqrt           ; [CPU_] |560| 
         000000ef 0000 
    1414                      ; call occurs [#__IQ24sqrt] ; [] |560| 
    1415 000000f0 761F-         MOVW      DP,#_gMotorVars+90    ; [CPU_U] 
         000000f1 0004 
    1416                      .dwpsn  file "../proj_lab05a.c",line 563,column 3,is_stmt,isa 0
TMS320C2000 Assembler PC v6.4.6 Thu Sep 17 14:11:15 2015

Tools Copyright (c) 1996-2015 Texas Instruments Incorporated
C:\Users\Admiral\AppData\Local\Temp\0215610                          PAGE   29

    1417 000000f2 8F06          MOVL      XAR4,#402653          ; [CPU_U] |563| 
         000000f3 24DD 
    1418                      .dwpsn  file "../proj_lab05a.c",line 560,column 3,is_stmt,isa 0
    1419 000000f4 1E1A-         MOVL      @_gMotorVars+90,ACC   ; [CPU_] |560| 
    1420 000000f5 761F-         MOVW      DP,#_gAdcData+12      ; [CPU_U] 
         000000f6 0000 
    1421                      .dwpsn  file "../proj_lab05a.c",line 563,column 3,is_stmt,isa 0
    1422 000000f7 8734-         MOVL      XT,@_gAdcData+12      ; [CPU_] |563| 
    1423 000000f8 5605          IMPYL     P,XT,XAR4             ; [CPU_] |563| 
         000000f9 00A4 
    1424 000000fa 5663          QMPYL     ACC,XT,XAR4           ; [CPU_] |563| 
         000000fb 00A4 
    1425 000000fc FE82          SUBB      SP,#2                 ; [CPU_U] 
    1426                      .dwcfi  cfa_offset, -6
    1427 000000fd 56A7          LSL64     ACC:P,#8              ; [CPU_] |563| 
    1428 000000fe 86BE          MOVL      XAR2,*--SP            ; [CPU_] 
    1429                      .dwcfi  cfa_offset, -4
    1430                      .dwcfi  restore_reg, 9
    1431 000000ff 8BBE          MOVL      XAR1,*--SP            ; [CPU_] 
    1432                      .dwcfi  cfa_offset, -2
    1433                      .dwcfi  restore_reg, 7
    1434 00000100 761F-         MOVW      DP,#_gMotorVars+84    ; [CPU_U] 
         00000101 0004 
    1435 00000102 1E14-         MOVL      @_gMotorVars+84,ACC   ; [CPU_] |563| 
    1436              $C$DW$197       .dwtag  DW_TAG_TI_branch
    1437                      .dwattr $C$DW$197, DW_AT_low_pc(0x00)
    1438                      .dwattr $C$DW$197, DW_AT_TI_return
    1439 00000103 0006          LRETR     ; [CPU_] 
    1440                      ; return occurs ; [] 
    1441                      .dwattr $C$DW$181, DW_AT_TI_end_file("../proj_lab05a.c")
    1442                      .dwattr $C$DW$181, DW_AT_TI_end_line(0x236)
    1443                      .dwattr $C$DW$181, DW_AT_TI_end_column(0x01)
    1444                      .dwendentry
    1445                      .dwendtag $C$DW$181
    1446              
    1447 00000000               .sect   ".text:retain"
    1448                      .retain
    1449                      .retainrefs
    1450                      .global _sciaISR
    1451              
    1452              $C$DW$198       .dwtag  DW_TAG_subprogram, DW_AT_name("sciaISR")
    1453                      .dwattr $C$DW$198, DW_AT_low_pc(_sciaISR)
    1454                      .dwattr $C$DW$198, DW_AT_high_pc(0x00)
    1455                      .dwattr $C$DW$198, DW_AT_TI_symbol_name("_sciaISR")
    1456                      .dwattr $C$DW$198, DW_AT_external
    1457                      .dwattr $C$DW$198, DW_AT_TI_begin_file("../proj_lab05a.c")
    1458                      .dwattr $C$DW$198, DW_AT_TI_begin_line(0x262)
    1459                      .dwattr $C$DW$198, DW_AT_TI_begin_column(0x10)
    1460                      .dwattr $C$DW$198, DW_AT_TI_interrupt
    1461                      .dwattr $C$DW$198, DW_AT_TI_max_frame_size(-14)
    1462                      .dwpsn  file "../proj_lab05a.c",line 610,column 30,is_stmt,address _sciaISR,isa 0
    1463              
    1464                      .dwfde $C$DW$CIE, _sciaISR
    1465              
    1466              ;***************************************************************
TMS320C2000 Assembler PC v6.4.6 Thu Sep 17 14:11:15 2015

Tools Copyright (c) 1996-2015 Texas Instruments Incorporated
C:\Users\Admiral\AppData\Local\Temp\0215610                          PAGE   30

    1467              ;* FNAME: _sciaISR                      FR SIZE:  12           *
    1468              ;*                                                             *
    1469              ;* FUNCTION ENVIRONMENT                                        *
    1470              ;*                                                             *
    1471              ;* FUNCTION PROPERTIES                                         *
    1472              ;*                            0 Parameter,  0 Auto, 12 SOE     *
    1473              ;***************************************************************
    1474              
    1475 00000000       _sciaISR:
    1476              ;* AR4   assigned to $O$C1
    1477                      .dwcfi  cfa_offset, -2
    1478                      .dwcfi  save_reg_to_mem, 26, 0
    1479 00000000 761B          ASP       ; [CPU_] 
    1480 00000001 0005          PUSH      AR1H:AR0H             ; [CPU_] 
    1481                      .dwcfi  save_reg_to_mem, 5, 2
    1482                      .dwcfi  save_reg_to_mem, 7, 3
    1483                      .dwcfi  cfa_offset, -4
    1484 00000002 FF69          SPM       0                     ; [CPU_] 
    1485 00000003 ABBD          MOVL      *SP++,XT              ; [CPU_] 
    1486                      .dwcfi  save_reg_to_mem, 21, 4
    1487                      .dwcfi  save_reg_to_mem, 22, 5
    1488                      .dwcfi  cfa_offset, -6
    1489 00000004 A8BD          MOVL      *SP++,XAR4            ; [CPU_] 
    1490                      .dwcfi  save_reg_to_mem, 12, 6
    1491                      .dwcfi  save_reg_to_mem, 13, 7
    1492                      .dwcfi  cfa_offset, -8
    1493 00000005 A0BD          MOVL      *SP++,XAR5            ; [CPU_] 
    1494                      .dwcfi  save_reg_to_mem, 14, 8
    1495                      .dwcfi  save_reg_to_mem, 15, 9
    1496                      .dwcfi  cfa_offset, -10
    1497 00000006 C2BD          MOVL      *SP++,XAR6            ; [CPU_] 
    1498                      .dwcfi  save_reg_to_mem, 16, 10
    1499                      .dwcfi  save_reg_to_mem, 17, 11
    1500                      .dwcfi  cfa_offset, -12
    1501 00000007 C3BD          MOVL      *SP++,XAR7            ; [CPU_] 
    1502                      .dwcfi  save_reg_to_mem, 18, 12
    1503                      .dwcfi  save_reg_to_mem, 19, 13
    1504                      .dwcfi  cfa_offset, -14
    1505 00000008 2942          CLRC      PAGE0,OVM             ; [CPU_] 
    1506 00000009 5616          CLRC      AMODE                 ; [CPU_] 
    1507 0000000a 761F-         MOVW      DP,#_halHandle        ; [CPU_U] 
         0000000b 0000 
    1508                      .dwpsn  file "../proj_lab05a.c",line 613,column 2,is_stmt,isa 0
    1509 0000000c 8A00-         MOVL      XAR4,@_halHandle      ; [CPU_] |613| 
    1510              $C$DW$199       .dwtag  DW_TAG_TI_branch
    1511                      .dwattr $C$DW$199, DW_AT_low_pc(0x00)
    1512                      .dwattr $C$DW$199, DW_AT_name("_HAL_sciaRead")
    1513                      .dwattr $C$DW$199, DW_AT_TI_call
    1514 0000000d 7640!         LCR       #_HAL_sciaRead        ; [CPU_] |613| 
         0000000e 0000 
    1515                      ; call occurs [#_HAL_sciaRead] ; [] |613| 
    1516 0000000f 761F-         MOVW      DP,#_ReceivedChar     ; [CPU_U] 
         00000010 0000 
    1517 00000011 90FF          ANDB      AL,#255               ; [CPU_] |613| 
    1518 00000012 521B          CMPB      AL,#27                ; [CPU_] |613| 
TMS320C2000 Assembler PC v6.4.6 Thu Sep 17 14:11:15 2015

Tools Copyright (c) 1996-2015 Texas Instruments Incorporated
C:\Users\Admiral\AppData\Local\Temp\0215610                          PAGE   31

    1519 00000013 9604-         MOV       @_ReceivedChar,AL     ; [CPU_] |613| 
    1520 00000014 EC47          BF        $C$L8,EQ              ; [CPU_] |613| 
    1521                      ; branchcc occurs ; [] |613| 
    1522                      .dwpsn  file "../proj_lab05a.c",line 618,column 3,is_stmt,isa 0
    1523 00000015 520D          CMPB      AL,#13                ; [CPU_] |618| 
    1524 00000016 EC34          BF        $C$L7,EQ              ; [CPU_] |618| 
    1525                      ; branchcc occurs ; [] |618| 
    1526 00000017 520A          CMPB      AL,#10                ; [CPU_] |618| 
    1527 00000018 EC32          BF        $C$L7,EQ              ; [CPU_] |618| 
    1528                      ; branchcc occurs ; [] |618| 
    1529 00000019 9203-         MOV       AL,@_cmdReady         ; [CPU_] |618| 
    1530 0000001a ED44          BF        $C$L9,NEQ             ; [CPU_] |618| 
    1531                      ; branchcc occurs ; [] |618| 
    1532 0000001b 761F-         MOVW      DP,#_halHandle        ; [CPU_U] 
         0000001c 0000 
    1533                      .dwpsn  file "../proj_lab05a.c",line 621,column 5,is_stmt,isa 0
    1534 0000001d 8A00-         MOVL      XAR4,@_halHandle      ; [CPU_] |621| 
    1535 0000001e 761F-         MOVW      DP,#_ReceivedChar     ; [CPU_U] 
         0000001f 0000 
    1536 00000020 9204-         MOV       AL,@_ReceivedChar     ; [CPU_] |621| 
    1537              $C$DW$200       .dwtag  DW_TAG_TI_branch
    1538                      .dwattr $C$DW$200, DW_AT_low_pc(0x00)
    1539                      .dwattr $C$DW$200, DW_AT_name("_HAL_sciaWrite")
    1540                      .dwattr $C$DW$200, DW_AT_TI_call
    1541 00000021 7640!         LCR       #_HAL_sciaWrite       ; [CPU_] |621| 
         00000022 0000 
    1542                      ; call occurs [#_HAL_sciaWrite] ; [] |621| 
    1543 00000023 761F-         MOVW      DP,#_ReceivedChar     ; [CPU_U] 
         00000024 0000 
    1544                      .dwpsn  file "../proj_lab05a.c",line 624,column 4,is_stmt,isa 0
    1545 00000025 9204-         MOV       AL,@_ReceivedChar     ; [CPU_] |624| 
    1546 00000026 527F          CMPB      AL,#127               ; [CPU_] |624| 
    1547 00000027 EC17          BF        $C$L6,EQ              ; [CPU_] |624| 
    1548                      ; branchcc occurs ; [] |624| 
    1549 00000028 5208          CMPB      AL,#8                 ; [CPU_] |624| 
    1550 00000029 EC15          BF        $C$L6,EQ              ; [CPU_] |624| 
    1551                      ; branchcc occurs ; [] |624| 
    1552                      .dwpsn  file "../proj_lab05a.c",line 625,column 5,is_stmt,isa 0
    1553 0000002a 0A02-         INC       @_bufPos              ; [CPU_] |625| 
    1554 0000002b 9202-         MOV       AL,@_bufPos           ; [CPU_] |625| 
    1555 0000002c 5208          CMPB      AL,#8                 ; [CPU_] |625| 
    1556 0000002d 56C3          BF        $C$L9,GEQ             ; [CPU_] |625| 
         0000002e 0031 
    1557                      ; branchcc occurs ; [] |625| 
    1558                      .dwpsn  file "../proj_lab05a.c",line 628,column 6,is_stmt,isa 0
    1559 0000002f 8802-         MOVZ      AR6,@_bufPos          ; [CPU_] |628| 
    1560 00000030 8F00-         MOVL      XAR4,#_cmdBuf         ; [CPU_U] |628| 
         00000031 0020 
    1561 00000032 3B01          SETC      SXM                   ; [CPU_] 
    1562 00000033 A8A9          MOVL      ACC,XAR4              ; [CPU_] |628| 
    1563 00000034 DE81          SUBB      XAR6,#1               ; [CPU_U] |628| 
    1564 00000035 81A6          ADD       ACC,AR6               ; [CPU_] |628| 
    1565 00000036 8804-         MOVZ      AR6,@_ReceivedChar    ; [CPU_] |628| 
    1566 00000037 83A9          MOVL      XAR5,ACC              ; [CPU_] |628| 
    1567 00000038 7EC5          MOV       *+XAR5[0],AR6         ; [CPU_] |628| 
TMS320C2000 Assembler PC v6.4.6 Thu Sep 17 14:11:15 2015

Tools Copyright (c) 1996-2015 Texas Instruments Incorporated
C:\Users\Admiral\AppData\Local\Temp\0215610                          PAGE   32

    1568 00000039       $C$L5:    
    1569                      .dwpsn  file "../proj_lab05a.c",line 629,column 6,is_stmt,isa 0
    1570 00000039 A8A9          MOVL      ACC,XAR4              ; [CPU_] |629| 
    1571 0000003a 8102-         ADD       ACC,@_bufPos          ; [CPU_] |629| 
    1572 0000003b 8AA9          MOVL      XAR4,ACC              ; [CPU_] |629| 
    1573 0000003c 2BC4          MOV       *+XAR4[0],#0          ; [CPU_] |629| 
    1574 0000003d 6F21          B         $C$L9,UNC             ; [CPU_] |629| 
    1575                      ; branch occurs ; [] |629| 
    1576 0000003e       $C$L6:    
    1577                      .dwpsn  file "../proj_lab05a.c",line 633,column 5,is_stmt,isa 0
    1578 0000003e 9202-         MOV       AL,@_bufPos           ; [CPU_] |633| 
    1579 0000003f 56C5          BF        $C$L9,LEQ             ; [CPU_] |633| 
         00000040 001F 
    1580                      ; branchcc occurs ; [] |633| 
    1581                      .dwpsn  file "../proj_lab05a.c",line 634,column 6,is_stmt,isa 0
    1582 00000041 9CFF          ADDB      AL,#-1                ; [CPU_] |634| 
    1583 00000042 9602-         MOV       @_bufPos,AL           ; [CPU_] |634| 
    1584 00000043 5208          CMPB      AL,#8                 ; [CPU_] |634| 
    1585 00000044 56C3          BF        $C$L9,GEQ             ; [CPU_] |634| 
         00000045 001A 
    1586                      ; branchcc occurs ; [] |634| 
    1587                      .dwpsn  file "../proj_lab05a.c",line 637,column 7,is_stmt,isa 0
    1588 00000046 8F00-         MOVL      XAR4,#_cmdBuf         ; [CPU_U] |637| 
         00000047 0020 
    1589 00000048 3B01          SETC      SXM                   ; [CPU_] 
    1590 00000049 6FF0          B         $C$L5,UNC             ; [CPU_] |637| 
    1591                      ; branch occurs ; [] |637| 
    1592 0000004a       $C$L7:    
    1593                      .dwpsn  file "../proj_lab05a.c",line 641,column 9,is_stmt,isa 0
    1594 0000004a 9203-         MOV       AL,@_cmdReady         ; [CPU_] |641| 
    1595 0000004b ED13          BF        $C$L9,NEQ             ; [CPU_] |641| 
    1596                      ; branchcc occurs ; [] |641| 
    1597                      .dwpsn  file "../proj_lab05a.c",line 642,column 4,is_stmt,isa 0
    1598 0000004c 8F00+         MOVL      XAR4,#$C$FSL1         ; [CPU_U] |642| 
         0000004d 0000 
    1599                      .dwpsn  file "../proj_lab05a.c",line 643,column 4,is_stmt,isa 0
    1600 0000004e 8F40+         MOVL      XAR5,#$C$FSL1         ; [CPU_U] |643| 
         0000004f 0000 
    1601                      .dwpsn  file "../proj_lab05a.c",line 642,column 4,is_stmt,isa 0
    1602 00000050 A810-         MOVL      @_msg,XAR4            ; [CPU_] |642| 
    1603 00000051 761F-         MOVW      DP,#_halHandle        ; [CPU_U] 
         00000052 0000 
    1604                      .dwpsn  file "../proj_lab05a.c",line 643,column 4,is_stmt,isa 0
    1605 00000053 8A00-         MOVL      XAR4,@_halHandle      ; [CPU_] |643| 
    1606              $C$DW$201       .dwtag  DW_TAG_TI_branch
    1607                      .dwattr $C$DW$201, DW_AT_low_pc(0x00)
    1608                      .dwattr $C$DW$201, DW_AT_name("_HAL_sciaWriteMsg")
    1609                      .dwattr $C$DW$201, DW_AT_TI_call
    1610 00000054 7640!         LCR       #_HAL_sciaWriteMsg    ; [CPU_] |643| 
         00000055 0000 
    1611                      ; call occurs [#_HAL_sciaWriteMsg] ; [] |643| 
    1612 00000056 761F-         MOVW      DP,#_cmdReady         ; [CPU_U] 
         00000057 0000 
    1613                      .dwpsn  file "../proj_lab05a.c",line 644,column 4,is_stmt,isa 0
    1614 00000058 56BF-         MOVB      @_cmdReady,#1,UNC     ; [CPU_] |644| 
TMS320C2000 Assembler PC v6.4.6 Thu Sep 17 14:11:15 2015

Tools Copyright (c) 1996-2015 Texas Instruments Incorporated
C:\Users\Admiral\AppData\Local\Temp\0215610                          PAGE   33

         00000059 0103 
    1615 0000005a 6F04          B         $C$L9,UNC             ; [CPU_] |644| 
    1616                      ; branch occurs ; [] |644| 
    1617 0000005b       $C$L8:    
    1618                      .dwpsn  file "../proj_lab05a.c",line 647,column 3,is_stmt,isa 0
    1619 0000005b 2B03-         MOV       @_cmdReady,#0         ; [CPU_] |647| 
    1620                      .dwpsn  file "../proj_lab05a.c",line 648,column 3,is_stmt,isa 0
    1621 0000005c 2B02-         MOV       @_bufPos,#0           ; [CPU_] |648| 
    1622                      .dwpsn  file "../proj_lab05a.c",line 649,column 3,is_stmt,isa 0
    1623 0000005d 2B20-         MOV       @_cmdBuf,#0           ; [CPU_] |649| 
    1624 0000005e       $C$L9:    
    1625 0000005e 761F-         MOVW      DP,#_halHandle        ; [CPU_U] 
         0000005f 0000 
    1626                      .dwpsn  file "../proj_lab05a.c",line 652,column 2,is_stmt,isa 0
    1627 00000060 8A00-         MOVL      XAR4,@_halHandle      ; [CPU_] |652| 
    1628              $C$DW$202       .dwtag  DW_TAG_TI_branch
    1629                      .dwattr $C$DW$202, DW_AT_low_pc(0x00)
    1630                      .dwattr $C$DW$202, DW_AT_name("_HAL_sciaClearRxFifoOvf")
    1631                      .dwattr $C$DW$202, DW_AT_TI_call
    1632 00000061 7640!         LCR       #_HAL_sciaClearRxFifoOvf ; [CPU_] |652| 
         00000062 0000 
    1633                      ; call occurs [#_HAL_sciaClearRxFifoOvf] ; [] |652| 
    1634 00000063 761F-         MOVW      DP,#_halHandle        ; [CPU_U] 
         00000064 0000 
    1635                      .dwpsn  file "../proj_lab05a.c",line 653,column 2,is_stmt,isa 0
    1636 00000065 8A00-         MOVL      XAR4,@_halHandle      ; [CPU_] |653| 
    1637              $C$DW$203       .dwtag  DW_TAG_TI_branch
    1638                      .dwattr $C$DW$203, DW_AT_low_pc(0x00)
    1639                      .dwattr $C$DW$203, DW_AT_name("_HAL_sciaClearRxFifoInt")
    1640                      .dwattr $C$DW$203, DW_AT_TI_call
    1641 00000066 7640!         LCR       #_HAL_sciaClearRxFifoInt ; [CPU_] |653| 
         00000067 0000 
    1642                      ; call occurs [#_HAL_sciaClearRxFifoInt] ; [] |653| 
    1643 00000068 761F-         MOVW      DP,#_halHandle        ; [CPU_U] 
         00000069 0000 
    1644                      .dwpsn  file "../proj_lab05a.c",line 655,column 2,is_stmt,isa 0
    1645 0000006a 9A08          MOVB      AL,#8                 ; [CPU_] |655| 
    1646 0000006b 8A00-         MOVL      XAR4,@_halHandle      ; [CPU_] |655| 
    1647              $C$DW$204       .dwtag  DW_TAG_TI_branch
    1648                      .dwattr $C$DW$204, DW_AT_low_pc(0x00)
    1649                      .dwattr $C$DW$204, DW_AT_name("_HAL_pieAckInt")
    1650                      .dwattr $C$DW$204, DW_AT_TI_call
    1651 0000006c 7640!         LCR       #_HAL_pieAckInt       ; [CPU_] |655| 
         0000006d 0000 
    1652                      ; call occurs [#_HAL_pieAckInt] ; [] |655| 
    1653 0000006e C5BE          MOVL      XAR7,*--SP            ; [CPU_] 
    1654                      .dwcfi  cfa_offset, -12
    1655                      .dwcfi  restore_reg, 18
    1656 0000006f C4BE          MOVL      XAR6,*--SP            ; [CPU_] 
    1657                      .dwcfi  cfa_offset, -10
    1658                      .dwcfi  restore_reg, 16
    1659 00000070 83BE          MOVL      XAR5,*--SP            ; [CPU_] 
    1660                      .dwcfi  cfa_offset, -8
    1661                      .dwcfi  restore_reg, 14
    1662 00000071 8ABE          MOVL      XAR4,*--SP            ; [CPU_] 
TMS320C2000 Assembler PC v6.4.6 Thu Sep 17 14:11:15 2015

Tools Copyright (c) 1996-2015 Texas Instruments Incorporated
C:\Users\Admiral\AppData\Local\Temp\0215610                          PAGE   34

    1663                      .dwcfi  cfa_offset, -6
    1664                      .dwcfi  restore_reg, 12
    1665 00000072 87BE          MOVL      XT,*--SP              ; [CPU_] 
    1666                      .dwcfi  cfa_offset, -4
    1667                      .dwcfi  restore_reg, 22
    1668                      .dwcfi  restore_reg, 21
    1669 00000073 0003          POP       AR1H:AR0H             ; [CPU_] 
    1670                      .dwcfi  cfa_offset, -2
    1671                      .dwcfi  restore_reg, 5
    1672                      .dwcfi  restore_reg, 7
    1673 00000074 7617          NASP      ; [CPU_] 
    1674              $C$DW$205       .dwtag  DW_TAG_TI_branch
    1675                      .dwattr $C$DW$205, DW_AT_low_pc(0x00)
    1676                      .dwattr $C$DW$205, DW_AT_TI_return
    1677 00000075 7602          IRET      ; [CPU_] 
    1678                      ; return occurs ; [] 
    1679                      .dwattr $C$DW$198, DW_AT_TI_end_file("../proj_lab05a.c")
    1680                      .dwattr $C$DW$198, DW_AT_TI_end_line(0x292)
    1681                      .dwattr $C$DW$198, DW_AT_TI_end_column(0x01)
    1682                      .dwendentry
    1683                      .dwendtag $C$DW$198
    1684              
    1685 00000000               .sect   "ramfuncs:retain"
    1686                      .retain
    1687                      .retainrefs
    1688                      .global _mainISR
    1689              
    1690              $C$DW$206       .dwtag  DW_TAG_subprogram, DW_AT_name("mainISR")
    1691                      .dwattr $C$DW$206, DW_AT_low_pc(_mainISR)
    1692                      .dwattr $C$DW$206, DW_AT_high_pc(0x00)
    1693                      .dwattr $C$DW$206, DW_AT_TI_symbol_name("_mainISR")
    1694                      .dwattr $C$DW$206, DW_AT_external
    1695                      .dwattr $C$DW$206, DW_AT_TI_begin_file("../proj_lab05a.c")
    1696                      .dwattr $C$DW$206, DW_AT_TI_begin_line(0x1da)
    1697                      .dwattr $C$DW$206, DW_AT_TI_begin_column(0x10)
    1698                      .dwattr $C$DW$206, DW_AT_TI_interrupt
    1699                      .dwattr $C$DW$206, DW_AT_TI_max_frame_size(-18)
    1700                      .dwpsn  file "../proj_lab05a.c",line 475,column 1,is_stmt,address _mainISR,isa 0
    1701              
    1702                      .dwfde $C$DW$CIE, _mainISR
    1703              
    1704              ;***************************************************************
    1705              ;* FNAME: _mainISR                      FR SIZE:  16           *
    1706              ;*                                                             *
    1707              ;* FUNCTION ENVIRONMENT                                        *
    1708              ;*                                                             *
    1709              ;* FUNCTION PROPERTIES                                         *
    1710              ;*                            4 Parameter,  0 Auto, 12 SOE     *
    1711              ;***************************************************************
    1712              
    1713              _mainISR:
    1714              ;* AR5   assigned to $O$C1
    1715              ;* AR1   assigned to $O$C2
    1716              ;* AR4   assigned to $O$C3
    1717              ;* AR7   assigned to $O$C4
TMS320C2000 Assembler PC v6.4.6 Thu Sep 17 14:11:15 2015

Tools Copyright (c) 1996-2015 Texas Instruments Incorporated
C:\Users\Admiral\AppData\Local\Temp\0215610                          PAGE   35

    1718              ;* AR6   assigned to $O$C5
    1719              ;* AR7   assigned to $O$C6
    1720              ;* AR5   assigned to $O$v1
    1721              ;* XT    assigned to _value
    1722              $C$DW$207       .dwtag  DW_TAG_variable, DW_AT_name("value")
    1723                      .dwattr $C$DW$207, DW_AT_TI_symbol_name("_value")
    1724                      .dwattr $C$DW$207, DW_AT_type(*$C$DW$T$35)
    1725                      .dwattr $C$DW$207, DW_AT_location[DW_OP_reg21]
    1726              ;* XT    assigned to _value
    1727              $C$DW$208       .dwtag  DW_TAG_variable, DW_AT_name("value")
    1728                      .dwattr $C$DW$208, DW_AT_TI_symbol_name("_value")
    1729                      .dwattr $C$DW$208, DW_AT_type(*$C$DW$T$35)
    1730                      .dwattr $C$DW$208, DW_AT_location[DW_OP_reg21]
    1731              ;* XT    assigned to _value
    1732              $C$DW$209       .dwtag  DW_TAG_variable, DW_AT_name("value")
    1733                      .dwattr $C$DW$209, DW_AT_TI_symbol_name("_value")
    1734                      .dwattr $C$DW$209, DW_AT_type(*$C$DW$T$35)
    1735                      .dwattr $C$DW$209, DW_AT_location[DW_OP_reg21]
    1736              ;* XT    assigned to _value
    1737              $C$DW$210       .dwtag  DW_TAG_variable, DW_AT_name("value")
    1738                      .dwattr $C$DW$210, DW_AT_TI_symbol_name("_value")
    1739                      .dwattr $C$DW$210, DW_AT_type(*$C$DW$T$35)
    1740                      .dwattr $C$DW$210, DW_AT_location[DW_OP_reg21]
    1741              ;* XT    assigned to _value
    1742              $C$DW$211       .dwtag  DW_TAG_variable, DW_AT_name("value")
    1743                      .dwattr $C$DW$211, DW_AT_TI_symbol_name("_value")
    1744                      .dwattr $C$DW$211, DW_AT_type(*$C$DW$T$35)
    1745                      .dwattr $C$DW$211, DW_AT_location[DW_OP_reg21]
    1746              ;* XT    assigned to _value
    1747              $C$DW$212       .dwtag  DW_TAG_variable, DW_AT_name("value")
    1748                      .dwattr $C$DW$212, DW_AT_TI_symbol_name("_value")
    1749                      .dwattr $C$DW$212, DW_AT_type(*$C$DW$T$35)
    1750                      .dwattr $C$DW$212, DW_AT_location[DW_OP_reg21]
    1751              ;* XT    assigned to _value
    1752              $C$DW$213       .dwtag  DW_TAG_variable, DW_AT_name("value")
    1753                      .dwattr $C$DW$213, DW_AT_TI_symbol_name("_value")
    1754                      .dwattr $C$DW$213, DW_AT_type(*$C$DW$T$35)
    1755                      .dwattr $C$DW$213, DW_AT_location[DW_OP_reg21]
    1756              ;* AR7   assigned to _period
    1757              $C$DW$214       .dwtag  DW_TAG_variable, DW_AT_name("period")
    1758                      .dwattr $C$DW$214, DW_AT_TI_symbol_name("_period")
    1759                      .dwattr $C$DW$214, DW_AT_type(*$C$DW$T$35)
    1760                      .dwattr $C$DW$214, DW_AT_location[DW_OP_reg18]
    1761              ;* AR5   assigned to _obj
    1762              $C$DW$215       .dwtag  DW_TAG_variable, DW_AT_name("obj")
    1763                      .dwattr $C$DW$215, DW_AT_TI_symbol_name("_obj")
    1764                      .dwattr $C$DW$215, DW_AT_type(*$C$DW$T$295)
    1765                      .dwattr $C$DW$215, DW_AT_location[DW_OP_reg14]
    1766              ;* AR1   assigned to $O$U109
    1767              ;* AR4   assigned to $O$U101
    1768                      .dwcfi  cfa_offset, -2
    1769                      .dwcfi  save_reg_to_mem, 26, 0
    1770 00000000 761B          ASP       ; [CPU_] 
    1771 00000001 0005          PUSH      AR1H:AR0H             ; [CPU_] 
    1772                      .dwcfi  save_reg_to_mem, 5, 2
TMS320C2000 Assembler PC v6.4.6 Thu Sep 17 14:11:15 2015

Tools Copyright (c) 1996-2015 Texas Instruments Incorporated
C:\Users\Admiral\AppData\Local\Temp\0215610                          PAGE   36

    1773                      .dwcfi  save_reg_to_mem, 7, 3
    1774                      .dwcfi  cfa_offset, -4
    1775 00000002 ABBD          MOVL      *SP++,XT              ; [CPU_] 
    1776                      .dwcfi  save_reg_to_mem, 21, 4
    1777                      .dwcfi  save_reg_to_mem, 22, 5
    1778                      .dwcfi  cfa_offset, -6
    1779 00000003 A8BD          MOVL      *SP++,XAR4            ; [CPU_] 
    1780                      .dwcfi  save_reg_to_mem, 12, 6
    1781                      .dwcfi  save_reg_to_mem, 13, 7
    1782                      .dwcfi  cfa_offset, -8
    1783 00000004 A0BD          MOVL      *SP++,XAR5            ; [CPU_] 
    1784                      .dwcfi  save_reg_to_mem, 14, 8
    1785                      .dwcfi  save_reg_to_mem, 15, 9
    1786                      .dwcfi  cfa_offset, -10
    1787 00000005 C2BD          MOVL      *SP++,XAR6            ; [CPU_] 
    1788                      .dwcfi  save_reg_to_mem, 16, 10
    1789                      .dwcfi  save_reg_to_mem, 17, 11
    1790                      .dwcfi  cfa_offset, -12
    1791 00000006 C3BD          MOVL      *SP++,XAR7            ; [CPU_] 
    1792                      .dwcfi  save_reg_to_mem, 18, 12
    1793                      .dwcfi  save_reg_to_mem, 19, 13
    1794                      .dwcfi  cfa_offset, -14
    1795 00000007 FE04          ADDB      SP,#4                 ; [CPU_U] 
    1796                      .dwcfi  cfa_offset, -18
    1797 00000008 FF69          SPM       0                     ; [CPU_] 
    1798 00000009 2942          CLRC      PAGE0,OVM             ; [CPU_] 
    1799 0000000a 5616          CLRC      AMODE                 ; [CPU_] 
    1800 0000000b 761F-         MOVW      DP,#_gLEDcnt          ; [CPU_U] 
         0000000c 0000 
    1801                      .dwpsn  file "../proj_lab05a.c",line 477,column 3,is_stmt,isa 0
    1802 0000000d 0A05-         INC       @_gLEDcnt             ; [CPU_] |477| 
    1803 0000000e 9205-         MOV       AL,@_gLEDcnt          ; [CPU_] |477| 
    1804 0000000f 9CFF          ADDB      AL,#-1                ; [CPU_] |477| 
    1805 00000010 1BA9          CMP       AL,#3000              ; [CPU_] |477| 
         00000011 0BB8 
    1806 00000012 56C9          BF        $C$L10,LOS            ; [CPU_] |477| 
         00000013 000E 
    1807                      ; branchcc occurs ; [] |477| 
    1808                      .dwpsn  file "C:/Users/Admiral/workspace2_v6_1/proj_lab05a_with_SCI_and_CAP/include/hal/hal.h",line 7
    1809 00000014 020A          MOVB      ACC,#10               ; [CPU_] |775| 
    1810 00000015 761F-         MOVW      DP,#_halHandle        ; [CPU_U] 
         00000016 0000 
    1811 00000017 0700-         ADDL      ACC,@_halHandle       ; [CPU_] |775| 
    1812 00000018 8AA9          MOVL      XAR4,ACC              ; [CPU_] |775| 
    1813 00000019 9A00          MOVB      AL,#0                 ; [CPU_] |775| 
    1814 0000001a 8AC4          MOVL      XAR4,*+XAR4[0]        ; [CPU_] |775| 
    1815              $C$DW$216       .dwtag  DW_TAG_TI_branch
    1816                      .dwattr $C$DW$216, DW_AT_low_pc(0x00)
    1817                      .dwattr $C$DW$216, DW_AT_name("_GPIO_toggle")
    1818                      .dwattr $C$DW$216, DW_AT_TI_call
    1819 0000001b 7640!         LCR       #_GPIO_toggle         ; [CPU_] |775| 
         0000001c 0000 
    1820                      ; call occurs [#_GPIO_toggle] ; [] |775| 
    1821 0000001d 761F-         MOVW      DP,#_gLEDcnt          ; [CPU_U] 
         0000001e 0000 
TMS320C2000 Assembler PC v6.4.6 Thu Sep 17 14:11:15 2015

Tools Copyright (c) 1996-2015 Texas Instruments Incorporated
C:\Users\Admiral\AppData\Local\Temp\0215610                          PAGE   37

    1822                      .dwpsn  file "../proj_lab05a.c",line 480,column 5,is_stmt,isa 0
    1823 0000001f 2B05-         MOV       @_gLEDcnt,#0          ; [CPU_] |480| 
    1824 00000020       $C$L10:    
    1825 00000020 761F-         MOVW      DP,#_halHandle        ; [CPU_U] 
         00000021 0000 
    1826                      .dwpsn  file "../proj_lab05a.c",line 485,column 3,is_stmt,isa 0
    1827 00000022 8300-         MOVL      XAR5,@_halHandle      ; [CPU_] |485| 
    1828                      .dwpsn  file "C:/ti/motorware/motorware_1_01_00_15/sw/drivers/adc/src/32b/f28x/f2802x/adc.h",line 571
    1829 00000023 8F00          MOVL      XAR4,#26117           ; [CPU_U] |571| 
         00000024 6605 
    1830 00000025 A8A9          MOVL      ACC,XAR4              ; [CPU_] |571| 
    1831 00000026 07C5          ADDL      ACC,*+XAR5[0]         ; [CPU_] |571| 
    1832 00000027 8AA9          MOVL      XAR4,ACC              ; [CPU_] |571| 
    1833                      .dwpsn  file "C:/ti/motorware/motorware_1_01_00_15/sw/drivers/pie/src/32b/f28x/f2802x/pie.h",line 757
    1834 00000028 D07A          MOVB      XAR0,#122             ; [CPU_] |757| 
    1835                      .dwpsn  file "C:/ti/motorware/motorware_1_01_00_15/sw/drivers/adc/src/32b/f28x/f2802x/adc.h",line 571
    1836 00000029 56BF          MOVB      *+XAR4[0],#1,UNC      ; [CPU_] |571| 
         0000002a 01C4 
    1837                      .dwpsn  file "C:/ti/motorware/motorware_1_01_00_15/sw/drivers/pie/src/32b/f28x/f2802x/pie.h",line 757
    1838 0000002b 8A95          MOVL      XAR4,*+XAR5[AR0]      ; [CPU_] |757| 
    1839                      .dwpsn  file "C:/Users/Admiral/workspace2_v6_1/proj_lab05a_with_SCI_and_CAP/include/hal/hal.h",line 5
    1840 0000002c D0A2          MOVB      XAR0,#162             ; [CPU_] |523| 
    1841 0000002d 761F-         MOVW      DP,#_ctrlHandle       ; [CPU_U] 
         0000002e 0000 
    1842                      .dwpsn  file "C:/ti/motorware/motorware_1_01_00_15/sw/drivers/pie/src/32b/f28x/f2802x/pie.h",line 757
    1843 0000002f 28CC          MOV       *+XAR4[1],#512        ; [CPU_] |757| 
         00000030 0200 
    1844                      .dwpsn  file "C:/ti/motorware/motorware_1_01_00_15/sw/drivers/adc/src/32b/f28x/f2802x/adc.h",line 684
    1845 00000031 C4C5          MOVL      XAR6,*+XAR5[0]        ; [CPU_] |684| 
    1846                      .dwpsn  file "C:/Users/Admiral/workspace2_v6_1/proj_lab05a_with_SCI_and_CAP/include/hal/hal.h",line 5
    1847 00000032 C595          MOVL      XAR7,*+XAR5[AR0]      ; [CPU_] |523| 
    1848                      .dwpsn  file "C:/Users/Admiral/workspace2_v6_1/proj_lab05a_with_SCI_and_CAP/include/hal/hal.h",line 5
    1849 00000033 8F00-         MOVL      XAR4,#_gAdcData       ; [CPU_U] |524| 
         00000034 0028 
    1850                      .dwpsn  file "C:/Users/Admiral/workspace2_v6_1/proj_lab05a_with_SCI_and_CAP/include/hal/hal.h",line 5
    1851 00000035 D094          MOVB      XAR0,#148             ; [CPU_] |523| 
    1852                      .dwpsn  file "C:/ti/motorware/motorware_1_01_00_15/sw/drivers/adc/src/32b/f28x/f2802x/adc.h",line 684
    1853 00000036 0ECE          MOVU      ACC,*+XAR6[1]         ; [CPU_] |684| 
    1854 00000037 1EAC          MOVL      XT,ACC                ; [CPU_] |684| 
    1855                      .dwpsn  file "C:/Users/Admiral/workspace2_v6_1/proj_lab05a_with_SCI_and_CAP/include/hal/hal.h",line 5
    1856 00000038 5605          IMPYL     P,XT,XAR7             ; [CPU_] |523| 
         00000039 00A7 
    1857 0000003a 5663          QMPYL     ACC,XT,XAR7           ; [CPU_] |523| 
         0000003b 00A7 
    1858 0000003c 568B          ASR64     ACC:P,#12             ; [CPU_] |523| 
    1859 0000003d A9A9          MOVL      ACC,P                 ; [CPU_] |523| 
    1860 0000003e 0395          SUBL      ACC,*+XAR5[AR0]       ; [CPU_] |523| 
    1861                      .dwpsn  file "C:/Users/Admiral/workspace2_v6_1/proj_lab05a_with_SCI_and_CAP/include/hal/hal.h",line 5
    1862 0000003f D096          MOVB      XAR0,#150             ; [CPU_] |528| 
    1863                      .dwpsn  file "C:/Users/Admiral/workspace2_v6_1/proj_lab05a_with_SCI_and_CAP/include/hal/hal.h",line 5
    1864 00000040 1EC4          MOVL      *+XAR4[0],ACC         ; [CPU_] |524| 
    1865                      .dwpsn  file "C:/ti/motorware/motorware_1_01_00_15/sw/drivers/adc/src/32b/f28x/f2802x/adc.h",line 684
    1866 00000041 0ED6          MOVU      ACC,*+XAR6[2]         ; [CPU_] |684| 
    1867 00000042 1EAC          MOVL      XT,ACC                ; [CPU_] |684| 
    1868                      .dwpsn  file "C:/Users/Admiral/workspace2_v6_1/proj_lab05a_with_SCI_and_CAP/include/hal/hal.h",line 5
TMS320C2000 Assembler PC v6.4.6 Thu Sep 17 14:11:15 2015

Tools Copyright (c) 1996-2015 Texas Instruments Incorporated
C:\Users\Admiral\AppData\Local\Temp\0215610                          PAGE   38

    1869 00000043 5605          IMPYL     P,XT,XAR7             ; [CPU_] |528| 
         00000044 00A7 
    1870 00000045 5663          QMPYL     ACC,XT,XAR7           ; [CPU_] |528| 
         00000046 00A7 
    1871 00000047 568B          ASR64     ACC:P,#12             ; [CPU_] |528| 
    1872 00000048 A9A9          MOVL      ACC,P                 ; [CPU_] |528| 
    1873 00000049 0395          SUBL      ACC,*+XAR5[AR0]       ; [CPU_] |528| 
    1874                      .dwpsn  file "C:/Users/Admiral/workspace2_v6_1/proj_lab05a_with_SCI_and_CAP/include/hal/hal.h",line 5
    1875 0000004a D098          MOVB      XAR0,#152             ; [CPU_] |533| 
    1876                      .dwpsn  file "C:/Users/Admiral/workspace2_v6_1/proj_lab05a_with_SCI_and_CAP/include/hal/hal.h",line 5
    1877 0000004b 1ED4          MOVL      *+XAR4[2],ACC         ; [CPU_] |529| 
    1878                      .dwpsn  file "C:/ti/motorware/motorware_1_01_00_15/sw/drivers/adc/src/32b/f28x/f2802x/adc.h",line 684
    1879 0000004c 0EDE          MOVU      ACC,*+XAR6[3]         ; [CPU_] |684| 
    1880 0000004d 1EAC          MOVL      XT,ACC                ; [CPU_] |684| 
    1881                      .dwpsn  file "C:/Users/Admiral/workspace2_v6_1/proj_lab05a_with_SCI_and_CAP/include/hal/hal.h",line 5
    1882 0000004e 5605          IMPYL     P,XT,XAR7             ; [CPU_] |533| 
         0000004f 00A7 
    1883 00000050 5663          QMPYL     ACC,XT,XAR7           ; [CPU_] |533| 
         00000051 00A7 
    1884 00000052 568B          ASR64     ACC:P,#12             ; [CPU_] |533| 
    1885 00000053 A9A9          MOVL      ACC,P                 ; [CPU_] |533| 
    1886 00000054 0395          SUBL      ACC,*+XAR5[AR0]       ; [CPU_] |533| 
    1887                      .dwpsn  file "C:/Users/Admiral/workspace2_v6_1/proj_lab05a_with_SCI_and_CAP/include/hal/hal.h",line 5
    1888 00000055 D0A4          MOVB      XAR0,#164             ; [CPU_] |538| 
    1889                      .dwpsn  file "C:/Users/Admiral/workspace2_v6_1/proj_lab05a_with_SCI_and_CAP/include/hal/hal.h",line 5
    1890 00000056 1EE4          MOVL      *+XAR4[4],ACC         ; [CPU_] |534| 
    1891                      .dwpsn  file "C:/ti/motorware/motorware_1_01_00_15/sw/drivers/adc/src/32b/f28x/f2802x/adc.h",line 684
    1892 00000057 0EE6          MOVU      ACC,*+XAR6[4]         ; [CPU_] |684| 
    1893                      .dwpsn  file "C:/Users/Admiral/workspace2_v6_1/proj_lab05a_with_SCI_and_CAP/include/hal/hal.h",line 5
    1894 00000058 C595          MOVL      XAR7,*+XAR5[AR0]      ; [CPU_] |538| 
    1895                      .dwpsn  file "../proj_lab05a.c",line 493,column 3,is_stmt,isa 0
    1896 00000059 8D40-         MOVL      XAR1,#_gPwmData       ; [CPU_U] |493| 
         0000005a 001A 
    1897                      .dwpsn  file "C:/ti/motorware/motorware_1_01_00_15/sw/drivers/adc/src/32b/f28x/f2802x/adc.h",line 684
    1898 0000005b 1EAC          MOVL      XT,ACC                ; [CPU_] |684| 
    1899                      .dwpsn  file "C:/Users/Admiral/workspace2_v6_1/proj_lab05a_with_SCI_and_CAP/include/hal/hal.h",line 5
    1900 0000005c D09A          MOVB      XAR0,#154             ; [CPU_] |538| 
    1901 0000005d 5605          IMPYL     P,XT,XAR7             ; [CPU_] |538| 
         0000005e 00A7 
    1902 0000005f 5663          QMPYL     ACC,XT,XAR7           ; [CPU_] |538| 
         00000060 00A7 
    1903 00000061 568B          ASR64     ACC:P,#12             ; [CPU_] |538| 
    1904 00000062 A9A9          MOVL      ACC,P                 ; [CPU_] |538| 
    1905 00000063 0395          SUBL      ACC,*+XAR5[AR0]       ; [CPU_] |538| 
    1906                      .dwpsn  file "C:/Users/Admiral/workspace2_v6_1/proj_lab05a_with_SCI_and_CAP/include/hal/hal.h",line 5
    1907 00000064 D09C          MOVB      XAR0,#156             ; [CPU_] |543| 
    1908                      .dwpsn  file "C:/Users/Admiral/workspace2_v6_1/proj_lab05a_with_SCI_and_CAP/include/hal/hal.h",line 5
    1909 00000065 1EF4          MOVL      *+XAR4[6],ACC         ; [CPU_] |539| 
    1910                      .dwpsn  file "C:/ti/motorware/motorware_1_01_00_15/sw/drivers/adc/src/32b/f28x/f2802x/adc.h",line 684
    1911 00000066 0EEE          MOVU      ACC,*+XAR6[5]         ; [CPU_] |684| 
    1912 00000067 1EAC          MOVL      XT,ACC                ; [CPU_] |684| 
    1913                      .dwpsn  file "C:/Users/Admiral/workspace2_v6_1/proj_lab05a_with_SCI_and_CAP/include/hal/hal.h",line 5
    1914 00000068 5605          IMPYL     P,XT,XAR7             ; [CPU_] |543| 
         00000069 00A7 
    1915 0000006a 5663          QMPYL     ACC,XT,XAR7           ; [CPU_] |543| 
TMS320C2000 Assembler PC v6.4.6 Thu Sep 17 14:11:15 2015

Tools Copyright (c) 1996-2015 Texas Instruments Incorporated
C:\Users\Admiral\AppData\Local\Temp\0215610                          PAGE   39

         0000006b 00A7 
    1916 0000006c 568B          ASR64     ACC:P,#12             ; [CPU_] |543| 
    1917 0000006d A9A9          MOVL      ACC,P                 ; [CPU_] |543| 
    1918 0000006e 0395          SUBL      ACC,*+XAR5[AR0]       ; [CPU_] |543| 
    1919                      .dwpsn  file "C:/Users/Admiral/workspace2_v6_1/proj_lab05a_with_SCI_and_CAP/include/hal/hal.h",line 5
    1920 0000006f D008          MOVB      XAR0,#8               ; [CPU_] |544| 
    1921 00000070 1E94          MOVL      *+XAR4[AR0],ACC       ; [CPU_] |544| 
    1922                      .dwpsn  file "C:/Users/Admiral/workspace2_v6_1/proj_lab05a_with_SCI_and_CAP/include/hal/hal.h",line 5
    1923 00000071 D09E          MOVB      XAR0,#158             ; [CPU_] |548| 
    1924                      .dwpsn  file "C:/ti/motorware/motorware_1_01_00_15/sw/drivers/adc/src/32b/f28x/f2802x/adc.h",line 684
    1925 00000072 0EF6          MOVU      ACC,*+XAR6[6]         ; [CPU_] |684| 
    1926 00000073 1EAC          MOVL      XT,ACC                ; [CPU_] |684| 
    1927                      .dwpsn  file "C:/Users/Admiral/workspace2_v6_1/proj_lab05a_with_SCI_and_CAP/include/hal/hal.h",line 5
    1928 00000074 5605          IMPYL     P,XT,XAR7             ; [CPU_] |548| 
         00000075 00A7 
    1929 00000076 5663          QMPYL     ACC,XT,XAR7           ; [CPU_] |548| 
         00000077 00A7 
    1930 00000078 568B          ASR64     ACC:P,#12             ; [CPU_] |548| 
    1931 00000079 A9A9          MOVL      ACC,P                 ; [CPU_] |548| 
    1932 0000007a 0395          SUBL      ACC,*+XAR5[AR0]       ; [CPU_] |548| 
    1933                      .dwpsn  file "C:/Users/Admiral/workspace2_v6_1/proj_lab05a_with_SCI_and_CAP/include/hal/hal.h",line 5
    1934 0000007b D00A          MOVB      XAR0,#10              ; [CPU_] |549| 
    1935 0000007c 1E94          MOVL      *+XAR4[AR0],ACC       ; [CPU_] |549| 
    1936                      .dwpsn  file "C:/Users/Admiral/workspace2_v6_1/proj_lab05a_with_SCI_and_CAP/include/hal/hal.h",line 5
    1937 0000007d D00C          MOVB      XAR0,#12              ; [CPU_] |554| 
    1938                      .dwpsn  file "C:/ti/motorware/motorware_1_01_00_15/sw/drivers/adc/src/32b/f28x/f2802x/adc.h",line 684
    1939 0000007e 0EFE          MOVU      ACC,*+XAR6[7]         ; [CPU_] |684| 
    1940 0000007f 1EAC          MOVL      XT,ACC                ; [CPU_] |684| 
    1941                      .dwpsn  file "C:/Users/Admiral/workspace2_v6_1/proj_lab05a_with_SCI_and_CAP/include/hal/hal.h",line 5
    1942 00000080 5605          IMPYL     P,XT,XAR7             ; [CPU_] |553| 
         00000081 00A7 
    1943 00000082 5663          QMPYL     ACC,XT,XAR7           ; [CPU_] |553| 
         00000083 00A7 
    1944 00000084 568B          ASR64     ACC:P,#12             ; [CPU_] |553| 
    1945                      .dwpsn  file "C:/Users/Admiral/workspace2_v6_1/proj_lab05a_with_SCI_and_CAP/include/hal/hal.h",line 5
    1946 00000085 A994          MOVL      *+XAR4[AR0],P         ; [CPU_] |554| 
    1947                      .dwpsn  file "../proj_lab05a.c",line 493,column 3,is_stmt,isa 0
    1948 00000086 A842          MOVL      *-SP[2],XAR4          ; [CPU_] |493| 
    1949 00000087 8A0C-         MOVL      XAR4,@_ctrlHandle     ; [CPU_] |493| 
    1950 00000088 B244          MOVL      *-SP[4],XAR1          ; [CPU_] |493| 
    1951              $C$DW$217       .dwtag  DW_TAG_TI_branch
    1952                      .dwattr $C$DW$217, DW_AT_low_pc(0x00)
    1953                      .dwattr $C$DW$217, DW_AT_name("_CTRL_run")
    1954                      .dwattr $C$DW$217, DW_AT_TI_call
    1955 00000089 7640!         LCR       #_CTRL_run            ; [CPU_] |493| 
         0000008a 0000 
    1956                      ; call occurs [#_CTRL_run] ; [] |493| 
    1957 0000008b 761F-         MOVW      DP,#_halHandle        ; [CPU_U] 
         0000008c 0000 
    1958 0000008d 027E          MOVB      ACC,#126              ; [CPU_] 
    1959 0000008e BE02          MOVB      XAR6,#2               ; [CPU_] 
    1960 0000008f 0700-         ADDL      ACC,@_halHandle       ; [CPU_] 
    1961 00000090 8AA9          MOVL      XAR4,ACC              ; [CPU_] 
    1962 00000091 3B01          SETC      SXM                   ; [CPU_] 
    1963 00000092       $C$L11:    
TMS320C2000 Assembler PC v6.4.6 Thu Sep 17 14:11:15 2015

Tools Copyright (c) 1996-2015 Texas Instruments Incorporated
C:\Users\Admiral\AppData\Local\Temp\0215610                          PAGE   40

    1964                      .dwpsn  file "C:/ti/motorware/motorware_1_01_00_15/sw/drivers/pwm/src/32b/f28x/f2802x/pwm.h",line 171
    1965 00000092 FF2F          MOV       ACC,#-512 << 15       ; [CPU_] |1717| 
         00000093 FE00 
    1966 00000094 8781          MOVL      XT,*XAR1++            ; [CPU_] |1717| 
    1967                      .dwpsn  file "C:/Users/Admiral/workspace2_v6_1/proj_lab05a_with_SCI_and_CAP/include/hal/hal.h",line 1
    1968 00000095 8384          MOVL      XAR5,*XAR4++          ; [CPU_] |1082| 
    1969                      .dwpsn  file "C:/ti/motorware/motorware_1_01_00_15/sw/drivers/pwm/src/32b/f28x/f2802x/pwm.h",line 171
    1970 00000096 5605          IMPYL     P,XT,ACC              ; [CPU_] |1717| 
         00000097 00A9 
    1971 00000098 5663          QMPYL     ACC,XT,ACC            ; [CPU_] |1717| 
         00000099 00A9 
    1972 0000009a 56A7          LSL64     ACC:P,#8              ; [CPU_] |1717| 
    1973 0000009b 2BAB          MOV       PL,#0                 ; [CPU_] |1717| 
    1974 0000009c 28AA          MOV       PH,#128               ; [CPU_] |1717| 
         0000009d 0080 
    1975 0000009e A9A0          MOVL      XAR0,P                ; [CPU_] |1717| 
    1976                      .dwpsn  file "C:/Users/Admiral/workspace2_v6_1/proj_lab05a_with_SCI_and_CAP/include/hal/hal.h",line 1
    1977 0000009f 80ED          MOVZ      AR7,*+XAR5[5]         ; [CPU_] |1082| 
    1978                      .dwpsn  file "C:/ti/motorware/motorware_1_01_00_15/sw/drivers/pwm/src/32b/f28x/f2802x/pwm.h",line 171
    1979 000000a0 2BAB          MOV       PL,#0                 ; [CPU_] |1717| 
    1980 000000a1 28AA          MOV       PH,#65408             ; [CPU_] |1717| 
         000000a2 FF80 
    1981 000000a3 5650          MINL      ACC,XAR0              ; [CPU_] |1717| 
         000000a4 00A0 
    1982 000000a5 5661          MAXL      ACC,P                 ; [CPU_] |1717| 
         000000a6 00AB 
    1983 000000a7 D009          MOVB      XAR0,#9               ; [CPU_] |1717| 
    1984 000000a8 FF1F          ADD       ACC,#256 << 15        ; [CPU_] |1717| 
         000000a9 0100 
    1985 000000aa 1EAC          MOVL      XT,ACC                ; [CPU_] |1717| 
    1986 000000ab 5605          IMPYL     P,XT,XAR7             ; [CPU_] |1717| 
         000000ac 00A7 
    1987 000000ad 5663          QMPYL     ACC,XT,XAR7           ; [CPU_] |1717| 
         000000ae 00A7 
    1988 000000af 56A7          LSL64     ACC:P,#8              ; [CPU_] |1717| 
    1989 000000b0 3100          MOV       P,#0                  ; [CPU_] |1717| 
    1990 000000b1 5650          MINL      ACC,XAR7              ; [CPU_] |1717| 
         000000b2 00A7 
    1991 000000b3 5661          MAXL      ACC,P                 ; [CPU_] |1717| 
         000000b4 00AB 
    1992 000000b5 9695          MOV       *+XAR5[AR0],AL        ; [CPU_] |1717| 
    1993                      .dwpsn  file "C:/Users/Admiral/workspace2_v6_1/proj_lab05a_with_SCI_and_CAP/include/hal/hal.h",line 1
    1994 000000b6 000E          BANZ      $C$L11,AR6--          ; [CPU_] |1079| 
         000000b7 FFDC 
    1995                      ; branchcc occurs ; [] |1079| 
    1996 000000b8 761F-         MOVW      DP,#_ctrlHandle       ; [CPU_U] 
         000000b9 0000 
    1997                      .dwpsn  file "../proj_lab05a.c",line 501,column 3,is_stmt,isa 0
    1998 000000ba 8A0C-         MOVL      XAR4,@_ctrlHandle     ; [CPU_] |501| 
    1999              $C$DW$218       .dwtag  DW_TAG_TI_branch
    2000                      .dwattr $C$DW$218, DW_AT_low_pc(0x00)
    2001                      .dwattr $C$DW$218, DW_AT_name("_CTRL_setup")
    2002                      .dwattr $C$DW$218, DW_AT_TI_call
    2003 000000bb 7640!         LCR       #_CTRL_setup          ; [CPU_] |501| 
         000000bc 0000 
TMS320C2000 Assembler PC v6.4.6 Thu Sep 17 14:11:15 2015

Tools Copyright (c) 1996-2015 Texas Instruments Incorporated
C:\Users\Admiral\AppData\Local\Temp\0215610                          PAGE   41

    2004                      ; call occurs [#_CTRL_setup] ; [] |501| 
    2005 000000bd FE84          SUBB      SP,#4                 ; [CPU_U] 
    2006                      .dwcfi  cfa_offset, -14
    2007 000000be C5BE          MOVL      XAR7,*--SP            ; [CPU_] 
    2008                      .dwcfi  cfa_offset, -12
    2009                      .dwcfi  restore_reg, 18
    2010 000000bf C4BE          MOVL      XAR6,*--SP            ; [CPU_] 
    2011                      .dwcfi  cfa_offset, -10
    2012                      .dwcfi  restore_reg, 16
    2013 000000c0 83BE          MOVL      XAR5,*--SP            ; [CPU_] 
    2014                      .dwcfi  cfa_offset, -8
    2015                      .dwcfi  restore_reg, 14
    2016 000000c1 8ABE          MOVL      XAR4,*--SP            ; [CPU_] 
    2017                      .dwcfi  cfa_offset, -6
    2018                      .dwcfi  restore_reg, 12
    2019 000000c2 87BE          MOVL      XT,*--SP              ; [CPU_] 
    2020                      .dwcfi  cfa_offset, -4
    2021                      .dwcfi  restore_reg, 22
    2022                      .dwcfi  restore_reg, 21
    2023 000000c3 0003          POP       AR1H:AR0H             ; [CPU_] 
    2024                      .dwcfi  cfa_offset, -2
    2025                      .dwcfi  restore_reg, 5
    2026                      .dwcfi  restore_reg, 7
    2027 000000c4 7617          NASP      ; [CPU_] 
    2028              $C$DW$219       .dwtag  DW_TAG_TI_branch
    2029                      .dwattr $C$DW$219, DW_AT_low_pc(0x00)
    2030                      .dwattr $C$DW$219, DW_AT_TI_return
    2031 000000c5 7602          IRET      ; [CPU_] 
    2032                      ; return occurs ; [] 
    2033                      .dwattr $C$DW$206, DW_AT_TI_end_file("../proj_lab05a.c")
    2034                      .dwattr $C$DW$206, DW_AT_TI_end_line(0x1f9)
    2035                      .dwattr $C$DW$206, DW_AT_TI_end_column(0x01)
    2036                      .dwendentry
    2037                      .dwendtag $C$DW$206
    2038              
    2039 00000104               .sect   ".text"
    2040                      .clink
    2041                      .global _main
    2042              
    2043              $C$DW$220       .dwtag  DW_TAG_subprogram, DW_AT_name("main")
    2044                      .dwattr $C$DW$220, DW_AT_low_pc(_main)
    2045                      .dwattr $C$DW$220, DW_AT_high_pc(0x00)
    2046                      .dwattr $C$DW$220, DW_AT_TI_symbol_name("_main")
    2047                      .dwattr $C$DW$220, DW_AT_external
    2048                      .dwattr $C$DW$220, DW_AT_TI_begin_file("../proj_lab05a.c")
    2049                      .dwattr $C$DW$220, DW_AT_TI_begin_line(0x9e)
    2050                      .dwattr $C$DW$220, DW_AT_TI_begin_column(0x06)
    2051                      .dwattr $C$DW$220, DW_AT_TI_max_frame_size(-20)
    2052                      .dwpsn  file "../proj_lab05a.c",line 159,column 1,is_stmt,address _main,isa 0
    2053              
    2054                      .dwfde $C$DW$CIE, _main
    2055              
    2056              ;***************************************************************
    2057              ;* FNAME: _main                         FR SIZE:  18           *
    2058              ;*                                                             *
TMS320C2000 Assembler PC v6.4.6 Thu Sep 17 14:11:15 2015

Tools Copyright (c) 1996-2015 Texas Instruments Incorporated
C:\Users\Admiral\AppData\Local\Temp\0215610                          PAGE   42

    2059              ;* FUNCTION ENVIRONMENT                                        *
    2060              ;*                                                             *
    2061              ;* FUNCTION PROPERTIES                                         *
    2062              ;*                            2 Parameter, 10 Auto,  6 SOE     *
    2063              ;***************************************************************
    2064              
    2065              _main:
    2066              ;* AR5   assigned to $O$C15
    2067              ;* AR5   assigned to $O$C16
    2068              ;* AR7   assigned to $O$C17
    2069              ;* AR7   assigned to $O$C18
    2070              ;* AR7   assigned to $O$C20
    2071              ;* XT    assigned to $O$C21
    2072              ;* AR6   assigned to $O$C22
    2073              ;* AR6   assigned to $O$C23
    2074              ;* AR6   assigned to $O$C24
    2075              ;* AR3   assigned to $O$K68
    2076              ;* AR5   assigned to _pie
    2077              $C$DW$221       .dwtag  DW_TAG_variable, DW_AT_name("pie")
    2078                      .dwattr $C$DW$221, DW_AT_TI_symbol_name("_pie")
    2079                      .dwattr $C$DW$221, DW_AT_type(*$C$DW$T$311)
    2080                      .dwattr $C$DW$221, DW_AT_location[DW_OP_reg14]
    2081              ;* AR5   assigned to _obj
    2082              $C$DW$222       .dwtag  DW_TAG_variable, DW_AT_name("obj")
    2083                      .dwattr $C$DW$222, DW_AT_TI_symbol_name("_obj")
    2084                      .dwattr $C$DW$222, DW_AT_type(*$C$DW$T$295)
    2085                      .dwattr $C$DW$222, DW_AT_location[DW_OP_reg14]
    2086              ;* AL    assigned to _state
    2087              $C$DW$223       .dwtag  DW_TAG_variable, DW_AT_name("state")
    2088                      .dwattr $C$DW$223, DW_AT_TI_symbol_name("_state")
    2089                      .dwattr $C$DW$223, DW_AT_type(*$C$DW$T$71)
    2090                      .dwattr $C$DW$223, DW_AT_location[DW_OP_reg0]
    2091              ;* AL    assigned to _state
    2092              $C$DW$224       .dwtag  DW_TAG_variable, DW_AT_name("state")
    2093                      .dwattr $C$DW$224, DW_AT_TI_symbol_name("_state")
    2094                      .dwattr $C$DW$224, DW_AT_type(*$C$DW$T$71)
    2095                      .dwattr $C$DW$224, DW_AT_location[DW_OP_reg0]
    2096              ;* AR4   assigned to _obj
    2097              $C$DW$225       .dwtag  DW_TAG_variable, DW_AT_name("obj")
    2098                      .dwattr $C$DW$225, DW_AT_TI_symbol_name("_obj")
    2099                      .dwattr $C$DW$225, DW_AT_type(*$C$DW$T$295)
    2100                      .dwattr $C$DW$225, DW_AT_location[DW_OP_reg12]
    2101              ;* AH    assigned to _state
    2102              $C$DW$226       .dwtag  DW_TAG_variable, DW_AT_name("state")
    2103                      .dwattr $C$DW$226, DW_AT_TI_symbol_name("_state")
    2104                      .dwattr $C$DW$226, DW_AT_type(*$C$DW$T$71)
    2105                      .dwattr $C$DW$226, DW_AT_location[DW_OP_reg1]
    2106              ;* AR6   assigned to _obj
    2107              $C$DW$227       .dwtag  DW_TAG_variable, DW_AT_name("obj")
    2108                      .dwattr $C$DW$227, DW_AT_TI_symbol_name("_obj")
    2109                      .dwattr $C$DW$227, DW_AT_type(*$C$DW$T$295)
    2110                      .dwattr $C$DW$227, DW_AT_location[DW_OP_reg16]
    2111              ;* AR6   assigned to _handle
    2112              $C$DW$228       .dwtag  DW_TAG_variable, DW_AT_name("handle")
    2113                      .dwattr $C$DW$228, DW_AT_TI_symbol_name("_handle")
TMS320C2000 Assembler PC v6.4.6 Thu Sep 17 14:11:15 2015

Tools Copyright (c) 1996-2015 Texas Instruments Incorporated
C:\Users\Admiral\AppData\Local\Temp\0215610                          PAGE   43

    2114                      .dwattr $C$DW$228, DW_AT_type(*$C$DW$T$297)
    2115                      .dwattr $C$DW$228, DW_AT_location[DW_OP_reg16]
    2116              ;* AR6   assigned to _obj
    2117              $C$DW$229       .dwtag  DW_TAG_variable, DW_AT_name("obj")
    2118                      .dwattr $C$DW$229, DW_AT_TI_symbol_name("_obj")
    2119                      .dwattr $C$DW$229, DW_AT_type(*$C$DW$T$295)
    2120                      .dwattr $C$DW$229, DW_AT_location[DW_OP_reg16]
    2121              ;* AR5   assigned to _obj
    2122              $C$DW$230       .dwtag  DW_TAG_variable, DW_AT_name("obj")
    2123                      .dwattr $C$DW$230, DW_AT_TI_symbol_name("_obj")
    2124                      .dwattr $C$DW$230, DW_AT_type(*$C$DW$T$295)
    2125                      .dwattr $C$DW$230, DW_AT_location[DW_OP_reg14]
    2126              ;* AR6   assigned to _state
    2127              $C$DW$231       .dwtag  DW_TAG_variable, DW_AT_name("state")
    2128                      .dwattr $C$DW$231, DW_AT_TI_symbol_name("_state")
    2129                      .dwattr $C$DW$231, DW_AT_type(*$C$DW$T$71)
    2130                      .dwattr $C$DW$231, DW_AT_location[DW_OP_reg16]
    2131              ;* AR4   assigned to _obj
    2132              $C$DW$232       .dwtag  DW_TAG_variable, DW_AT_name("obj")
    2133                      .dwattr $C$DW$232, DW_AT_TI_symbol_name("_obj")
    2134                      .dwattr $C$DW$232, DW_AT_type(*$C$DW$T$295)
    2135                      .dwattr $C$DW$232, DW_AT_location[DW_OP_reg12]
    2136              $C$DW$233       .dwtag  DW_TAG_variable, DW_AT_name("ctrlState")
    2137                      .dwattr $C$DW$233, DW_AT_TI_symbol_name("_ctrlState")
    2138                      .dwattr $C$DW$233, DW_AT_type(*$C$DW$T$42)
    2139                      .dwattr $C$DW$233, DW_AT_location[DW_OP_breg20 -7]
    2140              ;* AL    assigned to _flag_ctrlStateChanged
    2141              $C$DW$234       .dwtag  DW_TAG_variable, DW_AT_name("flag_ctrlStateChanged")
    2142                      .dwattr $C$DW$234, DW_AT_TI_symbol_name("_flag_ctrlStateChanged")
    2143                      .dwattr $C$DW$234, DW_AT_type(*$C$DW$T$71)
    2144                      .dwattr $C$DW$234, DW_AT_location[DW_OP_reg0]
    2145              ;* AR2   assigned to _obj
    2146              $C$DW$235       .dwtag  DW_TAG_variable, DW_AT_name("obj")
    2147                      .dwattr $C$DW$235, DW_AT_TI_symbol_name("_obj")
    2148                      .dwattr $C$DW$235, DW_AT_type(*$C$DW$T$275)
    2149                      .dwattr $C$DW$235, DW_AT_location[DW_OP_reg8]
    2150              $C$DW$236       .dwtag  DW_TAG_variable, DW_AT_name("cnt")
    2151                      .dwattr $C$DW$236, DW_AT_TI_symbol_name("_cnt")
    2152                      .dwattr $C$DW$236, DW_AT_type(*$C$DW$T$36)
    2153                      .dwattr $C$DW$236, DW_AT_location[DW_OP_breg20 -8]
    2154              ;* T     assigned to _cnt
    2155              $C$DW$237       .dwtag  DW_TAG_variable, DW_AT_name("cnt")
    2156                      .dwattr $C$DW$237, DW_AT_TI_symbol_name("_cnt")
    2157                      .dwattr $C$DW$237, DW_AT_type(*$C$DW$T$36)
    2158                      .dwattr $C$DW$237, DW_AT_location[DW_OP_reg22]
    2159              ;* AL    assigned to _bias
    2160              $C$DW$238       .dwtag  DW_TAG_variable, DW_AT_name("bias")
    2161                      .dwattr $C$DW$238, DW_AT_TI_symbol_name("_bias")
    2162                      .dwattr $C$DW$238, DW_AT_type(*$C$DW$T$35)
    2163                      .dwattr $C$DW$238, DW_AT_location[DW_OP_reg0]
    2164              ;* AL    assigned to _bias
    2165              $C$DW$239       .dwtag  DW_TAG_variable, DW_AT_name("bias")
    2166                      .dwattr $C$DW$239, DW_AT_TI_symbol_name("_bias")
    2167                      .dwattr $C$DW$239, DW_AT_type(*$C$DW$T$35)
    2168                      .dwattr $C$DW$239, DW_AT_location[DW_OP_reg0]
TMS320C2000 Assembler PC v6.4.6 Thu Sep 17 14:11:15 2015

Tools Copyright (c) 1996-2015 Texas Instruments Incorporated
C:\Users\Admiral\AppData\Local\Temp\0215610                          PAGE   44

    2169              ;* AR1   assigned to $O$K33
    2170              ;* AR1   assigned to $O$K33
    2171              ;* AR6   assigned to $O$K33
    2172              ;* AR5   assigned to $O$K33
    2173              ;* AR1   assigned to $O$K33
    2174              ;* AR4   assigned to $O$v1
    2175              ;* AR4   assigned to $O$v1
    2176              ;* AR4   assigned to $O$v1
    2177              ;* AR4   assigned to $O$v1
    2178              ;* AR2   assigned to $O$v1
    2179              ;* AR4   assigned to $O$v2
    2180              ;* AR4   assigned to $O$v2
    2181              ;* AR4   assigned to $O$v2
    2182              ;* AR5   assigned to $O$v2
    2183              $C$DW$240       .dwtag  DW_TAG_variable, DW_AT_name("version")
    2184                      .dwattr $C$DW$240, DW_AT_TI_symbol_name("_version")
    2185                      .dwattr $C$DW$240, DW_AT_type(*$C$DW$T$40)
    2186                      .dwattr $C$DW$240, DW_AT_location[DW_OP_breg20 -6]
    2187                      .dwcfi  cfa_offset, -2
    2188                      .dwcfi  save_reg_to_mem, 26, 0
    2189 00000104 B2BD          MOVL      *SP++,XAR1            ; [CPU_] 
    2190                      .dwcfi  save_reg_to_mem, 7, 2
    2191                      .dwcfi  cfa_offset, -4
    2192 00000105 AABD          MOVL      *SP++,XAR2            ; [CPU_] 
    2193                      .dwcfi  save_reg_to_mem, 9, 4
    2194                      .dwcfi  cfa_offset, -6
    2195 00000106 A2BD          MOVL      *SP++,XAR3            ; [CPU_] 
    2196                      .dwcfi  save_reg_to_mem, 11, 6
    2197                      .dwcfi  cfa_offset, -8
    2198 00000107 FE0C          ADDB      SP,#12                ; [CPU_U] 
    2199                      .dwcfi  cfa_offset, -20
    2200                      .dwpsn  file "../proj_lab05a.c",line 172,column 3,is_stmt,isa 0
    2201 00000108 8F00!         MOVL      XAR4,#_RamfuncsRunStart ; [CPU_U] |172| 
         00000109 0000 
    2202 0000010a 8F40!         MOVL      XAR5,#_RamfuncsLoadEnd ; [CPU_U] |172| 
         0000010b 0000 
    2203 0000010c A842          MOVL      *-SP[2],XAR4          ; [CPU_] |172| 
    2204 0000010d 8F00!         MOVL      XAR4,#_RamfuncsLoadStart ; [CPU_U] |172| 
         0000010e 0000 
    2205              $C$DW$241       .dwtag  DW_TAG_TI_branch
    2206                      .dwattr $C$DW$241, DW_AT_low_pc(0x00)
    2207                      .dwattr $C$DW$241, DW_AT_name("_memCopy")
    2208                      .dwattr $C$DW$241, DW_AT_TI_call
    2209 0000010f 7640!         LCR       #_memCopy             ; [CPU_] |172| 
         00000110 0000 
    2210                      ; call occurs [#_memCopy] ; [] |172| 
    2211 00000111 761F!         MOVW      DP,#_econst_start     ; [CPU_U] 
         00000112 0000 
    2212                      .dwpsn  file "../proj_lab05a.c",line 176,column 5,is_stmt,isa 0
    2213 00000113 8A00!         MOVL      XAR4,@_econst_start   ; [CPU_] |176| 
    2214 00000114 761F!         MOVW      DP,#_econst_end       ; [CPU_U] 
         00000115 0000 
    2215 00000116 0EC4          MOVU      ACC,*+XAR4[0]         ; [CPU_] |176| 
    2216 00000117 8A00!         MOVL      XAR4,@_econst_end     ; [CPU_] |176| 
    2217 00000118 88C4          MOVZ      AR6,*+XAR4[0]         ; [CPU_] |176| 
TMS320C2000 Assembler PC v6.4.6 Thu Sep 17 14:11:15 2015

Tools Copyright (c) 1996-2015 Texas Instruments Incorporated
C:\Users\Admiral\AppData\Local\Temp\0215610                          PAGE   45

    2218 00000119 0FA6          CMPL      ACC,XAR6              ; [CPU_] |176| 
    2219 0000011a EC0A          BF        $C$L12,EQ             ; [CPU_] |176| 
    2220                      ; branchcc occurs ; [] |176| 
    2221                      .dwpsn  file "../proj_lab05a.c",line 178,column 9,is_stmt,isa 0
    2222 0000011b 8F00!         MOVL      XAR4,#_econst_ram_load ; [CPU_U] |178| 
         0000011c 0000 
    2223 0000011d 8F40!         MOVL      XAR5,#_econst_end     ; [CPU_U] |178| 
         0000011e 0000 
    2224 0000011f A842          MOVL      *-SP[2],XAR4          ; [CPU_] |178| 
    2225 00000120 8F00!         MOVL      XAR4,#_econst_start   ; [CPU_U] |178| 
         00000121 0000 
    2226              $C$DW$242       .dwtag  DW_TAG_TI_branch
    2227                      .dwattr $C$DW$242, DW_AT_low_pc(0x00)
    2228                      .dwattr $C$DW$242, DW_AT_name("_memCopy")
    2229                      .dwattr $C$DW$242, DW_AT_TI_call
    2230 00000122 7640!         LCR       #_memCopy             ; [CPU_] |178| 
         00000123 0000 
    2231                      ; call occurs [#_memCopy] ; [] |178| 
    2232 00000124       $C$L12:    
    2233 00000124 761F!         MOVW      DP,#_switch_start     ; [CPU_U] 
         00000125 0000 
    2234                      .dwpsn  file "../proj_lab05a.c",line 182,column 5,is_stmt,isa 0
    2235 00000126 8A00!         MOVL      XAR4,@_switch_start   ; [CPU_] |182| 
    2236 00000127 761F!         MOVW      DP,#_switch_end       ; [CPU_U] 
         00000128 0000 
    2237 00000129 0EC4          MOVU      ACC,*+XAR4[0]         ; [CPU_] |182| 
    2238 0000012a 8A00!         MOVL      XAR4,@_switch_end     ; [CPU_] |182| 
    2239 0000012b 88C4          MOVZ      AR6,*+XAR4[0]         ; [CPU_] |182| 
    2240 0000012c 0FA6          CMPL      ACC,XAR6              ; [CPU_] |182| 
    2241 0000012d EC0A          BF        $C$L13,EQ             ; [CPU_] |182| 
    2242                      ; branchcc occurs ; [] |182| 
    2243                      .dwpsn  file "../proj_lab05a.c",line 184,column 9,is_stmt,isa 0
    2244 0000012e 8F00!         MOVL      XAR4,#_switch_ram_load ; [CPU_U] |184| 
         0000012f 0000 
    2245 00000130 8F40!         MOVL      XAR5,#_switch_end     ; [CPU_U] |184| 
         00000131 0000 
    2246 00000132 A842          MOVL      *-SP[2],XAR4          ; [CPU_] |184| 
    2247 00000133 8F00!         MOVL      XAR4,#_switch_start   ; [CPU_U] |184| 
         00000134 0000 
    2248              $C$DW$243       .dwtag  DW_TAG_TI_branch
    2249                      .dwattr $C$DW$243, DW_AT_low_pc(0x00)
    2250                      .dwattr $C$DW$243, DW_AT_name("_memCopy")
    2251                      .dwattr $C$DW$243, DW_AT_TI_call
    2252 00000135 7640!         LCR       #_memCopy             ; [CPU_] |184| 
         00000136 0000 
    2253                      ; call occurs [#_memCopy] ; [] |184| 
    2254 00000137       $C$L13:    
    2255                      .dwpsn  file "../proj_lab05a.c",line 191,column 3,is_stmt,isa 0
    2256 00000137 8F00!         MOVL      XAR4,#_hal            ; [CPU_U] |191| 
         00000138 0000 
    2257 00000139 02C6          MOVB      ACC,#198              ; [CPU_] |191| 
    2258              $C$DW$244       .dwtag  DW_TAG_TI_branch
    2259                      .dwattr $C$DW$244, DW_AT_low_pc(0x00)
    2260                      .dwattr $C$DW$244, DW_AT_name("_HAL_init")
    2261                      .dwattr $C$DW$244, DW_AT_TI_call
TMS320C2000 Assembler PC v6.4.6 Thu Sep 17 14:11:15 2015

Tools Copyright (c) 1996-2015 Texas Instruments Incorporated
C:\Users\Admiral\AppData\Local\Temp\0215610                          PAGE   46

    2262 0000013a 7640!         LCR       #_HAL_init            ; [CPU_] |191| 
         0000013b 0000 
    2263                      ; call occurs [#_HAL_init] ; [] |191| 
    2264                      .dwpsn  file "../proj_lab05a.c",line 195,column 3,is_stmt,isa 0
    2265 0000013c 8D40-         MOVL      XAR1,#_gUserParams    ; [CPU_U] |195| 
         0000013d 0040 
    2266 0000013e 761F-         MOVW      DP,#_halHandle        ; [CPU_U] 
         0000013f 0000 
    2267 00000140 B24C          MOVL      *-SP[12],XAR1         ; [CPU_] |195| 
    2268                      .dwpsn  file "../proj_lab05a.c",line 191,column 3,is_stmt,isa 0
    2269 00000141 A800-         MOVL      @_halHandle,XAR4      ; [CPU_] |191| 
    2270                      .dwpsn  file "../proj_lab05a.c",line 195,column 3,is_stmt,isa 0
    2271 00000142 8AA1          MOVL      XAR4,XAR1             ; [CPU_] |195| 
    2272              $C$DW$245       .dwtag  DW_TAG_TI_branch
    2273                      .dwattr $C$DW$245, DW_AT_low_pc(0x00)
    2274                      .dwattr $C$DW$245, DW_AT_name("_USER_checkForErrors")
    2275                      .dwattr $C$DW$245, DW_AT_TI_call
    2276 00000143 7640!         LCR       #_USER_checkForErrors ; [CPU_] |195| 
         00000144 0000 
    2277                      ; call occurs [#_USER_checkForErrors] ; [] |195| 
    2278                      .dwpsn  file "../proj_lab05a.c",line 199,column 3,is_stmt,isa 0
    2279 00000145 8AA1          MOVL      XAR4,XAR1             ; [CPU_] |199| 
    2280              $C$DW$246       .dwtag  DW_TAG_TI_branch
    2281                      .dwattr $C$DW$246, DW_AT_low_pc(0x00)
    2282                      .dwattr $C$DW$246, DW_AT_name("_USER_getErrorCode")
    2283                      .dwattr $C$DW$246, DW_AT_TI_call
    2284 00000146 7640!         LCR       #_USER_getErrorCode   ; [CPU_] |199| 
         00000147 0000 
    2285                      ; call occurs [#_USER_getErrorCode] ; [] |199| 
    2286 00000148 8D40-         MOVL      XAR1,#_gMotorVars     ; [CPU_U] |199| 
         00000149 00C0 
    2287 0000014a D00C          MOVB      XAR0,#12              ; [CPU_] |199| 
    2288 0000014b 9691          MOV       *+XAR1[AR0],AL        ; [CPU_] |199| 
    2289                      .dwpsn  file "../proj_lab05a.c",line 203,column 3,is_stmt,isa 0
    2290 0000014c D00C          MOVB      XAR0,#12              ; [CPU_] |203| 
    2291 0000014d 9291          MOV       AL,*+XAR1[AR0]        ; [CPU_] |203| 
    2292 0000014e 56C0          BF        $C$L33,NEQ            ; [CPU_] |203| 
         0000014f 0249 
    2293                      ; branchcc occurs ; [] |203| 
    2294 00000150 864C          MOVL      XAR2,*-SP[12]         ; [CPU_] 
    2295                      .dwpsn  file "../proj_lab05a.c",line 213,column 3,is_stmt,isa 0
    2296 00000151 8AA2          MOVL      XAR4,XAR2             ; [CPU_] |213| 
    2297              $C$DW$247       .dwtag  DW_TAG_TI_branch
    2298                      .dwattr $C$DW$247, DW_AT_low_pc(0x00)
    2299                      .dwattr $C$DW$247, DW_AT_name("_USER_setParams")
    2300                      .dwattr $C$DW$247, DW_AT_TI_call
    2301 00000152 7640!         LCR       #_USER_setParams      ; [CPU_] |213| 
         00000153 0000 
    2302                      ; call occurs [#_USER_setParams] ; [] |213| 
    2303 00000154 761F-         MOVW      DP,#_halHandle        ; [CPU_U] 
         00000155 0000 
    2304                      .dwpsn  file "../proj_lab05a.c",line 217,column 3,is_stmt,isa 0
    2305 00000156 8A00-         MOVL      XAR4,@_halHandle      ; [CPU_] |217| 
    2306 00000157 83A2          MOVL      XAR5,XAR2             ; [CPU_] |217| 
    2307              $C$DW$248       .dwtag  DW_TAG_TI_branch
TMS320C2000 Assembler PC v6.4.6 Thu Sep 17 14:11:15 2015

Tools Copyright (c) 1996-2015 Texas Instruments Incorporated
C:\Users\Admiral\AppData\Local\Temp\0215610                          PAGE   47

    2308                      .dwattr $C$DW$248, DW_AT_low_pc(0x00)
    2309                      .dwattr $C$DW$248, DW_AT_name("_HAL_setParams")
    2310                      .dwattr $C$DW$248, DW_AT_TI_call
    2311 00000158 7640!         LCR       #_HAL_setParams       ; [CPU_] |217| 
         00000159 0000 
    2312                      ; call occurs [#_HAL_setParams] ; [] |217| 
    2313                      .dwpsn  file "../proj_lab05a.c",line 225,column 3,is_stmt,isa 0
    2314 0000015a D500          MOVB      XAR5,#0               ; [CPU_] |225| 
    2315 0000015b 7680          MOVL      XAR6,#264             ; [CPU_U] |225| 
         0000015c 0108 
    2316 0000015d 8F00-         MOVL      XAR4,#_ctrl           ; [CPU_U] |225| 
         0000015e 0100 
    2317 0000015f 06A6          MOVL      ACC,XAR6              ; [CPU_] |225| 
    2318              $C$DW$249       .dwtag  DW_TAG_TI_branch
    2319                      .dwattr $C$DW$249, DW_AT_low_pc(0x00)
    2320                      .dwattr $C$DW$249, DW_AT_name("_CTRL_initCtrl")
    2321                      .dwattr $C$DW$249, DW_AT_TI_call
    2322 00000160 7640!         LCR       #_CTRL_initCtrl       ; [CPU_] |225| 
         00000161 0000 
    2323                      ; call occurs [#_CTRL_initCtrl] ; [] |225| 
    2324                      .dwpsn  file "../proj_lab05a.c",line 233,column 5,is_stmt,isa 0
    2325 00000162 5DAD          MOVZ      AR5,SP                ; [CPU_] |233| 
    2326 00000163 761F-         MOVW      DP,#_ctrlHandle       ; [CPU_U] 
         00000164 0000 
    2327                      .dwpsn  file "../proj_lab05a.c",line 225,column 3,is_stmt,isa 0
    2328 00000165 A80C-         MOVL      @_ctrlHandle,XAR4     ; [CPU_] |225| 
    2329                      .dwpsn  file "../proj_lab05a.c",line 233,column 5,is_stmt,isa 0
    2330 00000166 DD86          SUBB      XAR5,#6               ; [CPU_U] |233| 
    2331 00000167 5DA5          MOVZ      AR5,AR5               ; [CPU_] |233| 
    2332              $C$DW$250       .dwtag  DW_TAG_TI_branch
    2333                      .dwattr $C$DW$250, DW_AT_low_pc(0x00)
    2334                      .dwattr $C$DW$250, DW_AT_name("_CTRL_getVersion")
    2335                      .dwattr $C$DW$250, DW_AT_TI_call
    2336 00000168 7640!         LCR       #_CTRL_getVersion     ; [CPU_] |233| 
         00000169 0000 
    2337                      ; call occurs [#_CTRL_getVersion] ; [] |233| 
    2338                      .dwpsn  file "../proj_lab05a.c",line 235,column 5,is_stmt,isa 0
    2339 0000016a 5DAD          MOVZ      AR5,SP                ; [CPU_] |235| 
    2340 0000016b D90D          ADDB      XAR1,#13              ; [CPU_] |235| 
    2341 0000016c 0204          MOVB      ACC,#4                ; [CPU_] |235| 
    2342 0000016d 8AA1          MOVL      XAR4,XAR1             ; [CPU_] |235| 
    2343 0000016e DD86          SUBB      XAR5,#6               ; [CPU_U] |235| 
    2344 0000016f 5DA5          MOVZ      AR5,AR5               ; [CPU_] |235| 
    2345              $C$DW$251       .dwtag  DW_TAG_TI_branch
    2346                      .dwattr $C$DW$251, DW_AT_low_pc(0x00)
    2347                      .dwattr $C$DW$251, DW_AT_name("_memcpy")
    2348                      .dwattr $C$DW$251, DW_AT_TI_call
    2349 00000170 7640!         LCR       #_memcpy              ; [CPU_] |235| 
         00000171 0000 
    2350                      ; call occurs [#_memcpy] ; [] |235| 
    2351 00000172 761F-         MOVW      DP,#_ctrlHandle       ; [CPU_U] 
         00000173 0000 
    2352                      .dwpsn  file "../proj_lab05a.c",line 240,column 3,is_stmt,isa 0
    2353 00000174 8A0C-         MOVL      XAR4,@_ctrlHandle     ; [CPU_] |240| 
    2354 00000175 83A2          MOVL      XAR5,XAR2             ; [CPU_] |240| 
TMS320C2000 Assembler PC v6.4.6 Thu Sep 17 14:11:15 2015

Tools Copyright (c) 1996-2015 Texas Instruments Incorporated
C:\Users\Admiral\AppData\Local\Temp\0215610                          PAGE   48

    2355              $C$DW$252       .dwtag  DW_TAG_TI_branch
    2356                      .dwattr $C$DW$252, DW_AT_low_pc(0x00)
    2357                      .dwattr $C$DW$252, DW_AT_name("_CTRL_setParams")
    2358                      .dwattr $C$DW$252, DW_AT_TI_call
    2359 00000176 7640!         LCR       #_CTRL_setParams      ; [CPU_] |240| 
         00000177 0000 
    2360                      ; call occurs [#_CTRL_setParams] ; [] |240| 
    2361 00000178 761F-         MOVW      DP,#_halHandle        ; [CPU_U] 
         00000179 0000 
    2362                      .dwpsn  file "../proj_lab05a.c",line 244,column 3,is_stmt,isa 0
    2363 0000017a 8A00-         MOVL      XAR4,@_halHandle      ; [CPU_] |244| 
    2364              $C$DW$253       .dwtag  DW_TAG_TI_branch
    2365                      .dwattr $C$DW$253, DW_AT_low_pc(0x00)
    2366                      .dwattr $C$DW$253, DW_AT_name("_HAL_setupFaults")
    2367                      .dwattr $C$DW$253, DW_AT_TI_call
    2368 0000017b 7640!         LCR       #_HAL_setupFaults     ; [CPU_] |244| 
         0000017c 0000 
    2369                      ; call occurs [#_HAL_setupFaults] ; [] |244| 
    2370 0000017d 761F-         MOVW      DP,#_halHandle        ; [CPU_U] 
         0000017e 0000 
    2371                      .dwpsn  file "../proj_lab05a.c",line 248,column 3,is_stmt,isa 0
    2372 0000017f 8A00-         MOVL      XAR4,@_halHandle      ; [CPU_] |248| 
    2373                      .dwpsn  file "C:/Users/Admiral/workspace2_v6_1/proj_lab05a_with_SCI_and_CAP/include/hal/hal.h",line 4
    2374 00000180 D07A          MOVB      XAR0,#122             ; [CPU_] |480| 
    2375 00000181 8394          MOVL      XAR5,*+XAR4[AR0]      ; [CPU_] |480| 
    2376 00000182 7622   EALLOW
    2377                      .dwpsn  file "C:/Users/Admiral/workspace2_v6_1/proj_lab05a_with_SCI_and_CAP/include/hal/hal.h",line 4
    2378 00000183 D0F0          MOVB      XAR0,#240             ; [CPU_] |485| 
    2379 00000184 7680+         MOVL      XAR6,#_mainISR        ; [CPU_U] |485| 
         00000185 0000 
    2380 00000186 C295          MOVL      *+XAR5[AR0],XAR6      ; [CPU_] |485| 
    2381                      .dwpsn  file "C:/Users/Admiral/workspace2_v6_1/proj_lab05a_with_SCI_and_CAP/include/hal/hal.h",line 4
    2382 00000187 D0E0          MOVB      XAR0,#224             ; [CPU_] |489| 
    2383 00000188 7680+         MOVL      XAR6,#_sciaISR        ; [CPU_U] |489| 
         00000189 0000 
    2384 0000018a C295          MOVL      *+XAR5[AR0],XAR6      ; [CPU_] |489| 
    2385                      .dwpsn  file "C:/Users/Admiral/workspace2_v6_1/proj_lab05a_with_SCI_and_CAP/include/hal/hal.h",line 4
    2386 0000018b D090          MOVB      XAR0,#144             ; [CPU_] |494| 
    2387 0000018c 7680+         MOVL      XAR6,#_ecap1ISR       ; [CPU_U] |494| 
         0000018d 0076 
    2388 0000018e C295          MOVL      *+XAR5[AR0],XAR6      ; [CPU_] |494| 
    2389 0000018f 761A   EDIS
    2390 00000190 FF69          SPM       #0                    ; [CPU_] 
    2391                      .dwpsn  file "../proj_lab05a.c",line 252,column 3,is_stmt,isa 0
    2392              $C$DW$254       .dwtag  DW_TAG_TI_branch
    2393                      .dwattr $C$DW$254, DW_AT_low_pc(0x00)
    2394                      .dwattr $C$DW$254, DW_AT_name("_HAL_enableAdcInts")
    2395                      .dwattr $C$DW$254, DW_AT_TI_call
    2396 00000191 7640!         LCR       #_HAL_enableAdcInts   ; [CPU_] |252| 
         00000192 0000 
    2397                      ; call occurs [#_HAL_enableAdcInts] ; [] |252| 
    2398 00000193 761F-         MOVW      DP,#_halHandle        ; [CPU_U] 
         00000194 0000 
    2399                      .dwpsn  file "../proj_lab05a.c",line 256,column 3,is_stmt,isa 0
    2400 00000195 8A00-         MOVL      XAR4,@_halHandle      ; [CPU_] |256| 
TMS320C2000 Assembler PC v6.4.6 Thu Sep 17 14:11:15 2015

Tools Copyright (c) 1996-2015 Texas Instruments Incorporated
C:\Users\Admiral\AppData\Local\Temp\0215610                          PAGE   49

    2401              $C$DW$255       .dwtag  DW_TAG_TI_branch
    2402                      .dwattr $C$DW$255, DW_AT_low_pc(0x00)
    2403                      .dwattr $C$DW$255, DW_AT_name("_HAL_enableGlobalInts")
    2404                      .dwattr $C$DW$255, DW_AT_TI_call
    2405 00000196 7640!         LCR       #_HAL_enableGlobalInts ; [CPU_] |256| 
         00000197 0000 
    2406                      ; call occurs [#_HAL_enableGlobalInts] ; [] |256| 
    2407 00000198 761F-         MOVW      DP,#_halHandle        ; [CPU_U] 
         00000199 0000 
    2408                      .dwpsn  file "../proj_lab05a.c",line 260,column 3,is_stmt,isa 0
    2409 0000019a 8A00-         MOVL      XAR4,@_halHandle      ; [CPU_] |260| 
    2410              $C$DW$256       .dwtag  DW_TAG_TI_branch
    2411                      .dwattr $C$DW$256, DW_AT_low_pc(0x00)
    2412                      .dwattr $C$DW$256, DW_AT_name("_HAL_enableDebugInt")
    2413                      .dwattr $C$DW$256, DW_AT_TI_call
    2414 0000019b 7640!         LCR       #_HAL_enableDebugInt  ; [CPU_] |260| 
         0000019c 0000 
    2415                      ; call occurs [#_HAL_enableDebugInt] ; [] |260| 
    2416 0000019d 761F-         MOVW      DP,#_halHandle        ; [CPU_U] 
         0000019e 0000 
    2417                      .dwpsn  file "../proj_lab05a.c",line 264,column 3,is_stmt,isa 0
    2418 0000019f 8A00-         MOVL      XAR4,@_halHandle      ; [CPU_] |264| 
    2419                      .dwpsn  file "C:/Users/Admiral/workspace2_v6_1/proj_lab05a_with_SCI_and_CAP/include/hal/hal.h",line 2
    2420 000001a0 A8A9          MOVL      ACC,XAR4              ; [CPU_] |248| 
    2421 000001a1 0980          ADDB      ACC,#128              ; [CPU_] |248| 
    2422 000001a2 83A9          MOVL      XAR5,ACC              ; [CPU_] |248| 
    2423 000001a3 7622   EALLOW
    2424                      .dwpsn  file "C:/ti/motorware/motorware_1_01_00_15/sw/drivers/pwm/src/32b/f28x/f2802x/pwm.h",line 156
    2425 000001a4 D07E          MOVB      XAR0,#126             ; [CPU_] |1567| 
    2426 000001a5 0218          MOVB      ACC,#24               ; [CPU_] |1567| 
    2427 000001a6 0794          ADDL      ACC,*+XAR4[AR0]       ; [CPU_] |1567| 
    2428 000001a7 1EA6          MOVL      XAR6,ACC              ; [CPU_] |1567| 
    2429 000001a8 1AC6          OR        *+XAR6[0],#0x0004     ; [CPU_] |1567| 
         000001a9 0004 
    2430 000001aa 761A   EDIS
    2431 000001ab 7622   EALLOW
    2432 000001ac 0218          MOVB      ACC,#24               ; [CPU_] |1567| 
    2433 000001ad 07C5          ADDL      ACC,*+XAR5[0]         ; [CPU_] |1567| 
    2434 000001ae 1EA6          MOVL      XAR6,ACC              ; [CPU_] |1567| 
    2435 000001af 1AC6          OR        *+XAR6[0],#0x0004     ; [CPU_] |1567| 
         000001b0 0004 
    2436 000001b1 761A   EDIS
    2437 000001b2 7622   EALLOW
    2438 000001b3 0218          MOVB      ACC,#24               ; [CPU_] |1567| 
    2439 000001b4 07D5          ADDL      ACC,*+XAR5[2]         ; [CPU_] |1567| 
    2440 000001b5 83A9          MOVL      XAR5,ACC              ; [CPU_] |1567| 
    2441 000001b6 1AC5          OR        *+XAR5[0],#0x0004     ; [CPU_] |1567| 
         000001b7 0004 
    2442 000001b8 761A   EDIS
    2443 000001b9 FF69          SPM       #0                    ; [CPU_] 
    2444                      .dwpsn  file "../proj_lab05a.c",line 276,column 3,is_stmt,isa 0
    2445              $C$DW$257       .dwtag  DW_TAG_TI_branch
    2446                      .dwattr $C$DW$257, DW_AT_low_pc(0x00)
    2447                      .dwattr $C$DW$257, DW_AT_name("_HAL_enableDrv")
    2448                      .dwattr $C$DW$257, DW_AT_TI_call
TMS320C2000 Assembler PC v6.4.6 Thu Sep 17 14:11:15 2015

Tools Copyright (c) 1996-2015 Texas Instruments Incorporated
C:\Users\Admiral\AppData\Local\Temp\0215610                          PAGE   50

    2449 000001ba 7640!         LCR       #_HAL_enableDrv       ; [CPU_] |276| 
         000001bb 0000 
    2450                      ; call occurs [#_HAL_enableDrv] ; [] |276| 
    2451 000001bc 761F-         MOVW      DP,#_halHandle        ; [CPU_U] 
         000001bd 0000 
    2452                      .dwpsn  file "../proj_lab05a.c",line 278,column 3,is_stmt,isa 0
    2453 000001be 8DC0-         MOVL      XAR3,#_gDrvSpi8305Vars ; [CPU_U] |278| 
         000001bf 0040 
    2454 000001c0 8A00-         MOVL      XAR4,@_halHandle      ; [CPU_] |278| 
    2455 000001c1 83A3          MOVL      XAR5,XAR3             ; [CPU_] |278| 
    2456              $C$DW$258       .dwtag  DW_TAG_TI_branch
    2457                      .dwattr $C$DW$258, DW_AT_low_pc(0x00)
    2458                      .dwattr $C$DW$258, DW_AT_name("_HAL_setupDrvSpi")
    2459                      .dwattr $C$DW$258, DW_AT_TI_call
    2460 000001c2 7640!         LCR       #_HAL_setupDrvSpi     ; [CPU_] |278| 
         000001c3 0000 
    2461                      ; call occurs [#_HAL_setupDrvSpi] ; [] |278| 
    2462 000001c4 761F-         MOVW      DP,#_ctrlHandle       ; [CPU_U] 
         000001c5 0000 
    2463                      .dwpsn  file "C:/ti/motorware/motorware_1_01_00_15/sw/modules/ctrl/src/32b/ctrl.h",line 1246,column 3
    2464 000001c6 02F1          MOVB      ACC,#241              ; [CPU_] |1246| 
    2465 000001c7 070C-         ADDL      ACC,@_ctrlHandle      ; [CPU_] |1246| 
    2466 000001c8 8AA9          MOVL      XAR4,ACC              ; [CPU_] |1246| 
    2467 000001c9 56BF          MOVB      *+XAR4[0],#1,UNC      ; [CPU_] |1246| 
         000001ca 01C4 
    2468                      .dwpsn  file "../proj_lab05a.c",line 287,column 3,is_stmt,isa 0
    2469              $C$DW$259       .dwtag  DW_TAG_TI_branch
    2470                      .dwattr $C$DW$259, DW_AT_low_pc(0x00)
    2471                      .dwattr $C$DW$259, DW_AT_name("_USER_computeFlux_pu_to_Wb_sf")
    2472                      .dwattr $C$DW$259, DW_AT_TI_call
    2473 000001cb 7640!         LCR       #_USER_computeFlux_pu_to_Wb_sf ; [CPU_] |287| 
         000001cc 0000 
    2474                      ; call occurs [#_USER_computeFlux_pu_to_Wb_sf] ; [] |287| 
    2475 000001cd 761F-         MOVW      DP,#_gFlux_pu_to_Wb_sf ; [CPU_U] 
         000001ce 0000 
    2476 000001cf 1E14-         MOVL      @_gFlux_pu_to_Wb_sf,ACC ; [CPU_] |287| 
    2477                      .dwpsn  file "../proj_lab05a.c",line 288,column 3,is_stmt,isa 0
    2478              $C$DW$260       .dwtag  DW_TAG_TI_branch
    2479                      .dwattr $C$DW$260, DW_AT_low_pc(0x00)
    2480                      .dwattr $C$DW$260, DW_AT_name("_USER_computeFlux_pu_to_VpHz_sf")
    2481                      .dwattr $C$DW$260, DW_AT_TI_call
    2482 000001d0 7640!         LCR       #_USER_computeFlux_pu_to_VpHz_sf ; [CPU_] |288| 
         000001d1 0000 
    2483                      ; call occurs [#_USER_computeFlux_pu_to_VpHz_sf] ; [] |288| 
    2484 000001d2 761F-         MOVW      DP,#_gFlux_pu_to_VpHz_sf ; [CPU_U] 
         000001d3 0000 
    2485 000001d4 1E08-         MOVL      @_gFlux_pu_to_VpHz_sf,ACC ; [CPU_] |288| 
    2486                      .dwpsn  file "../proj_lab05a.c",line 289,column 3,is_stmt,isa 0
    2487              $C$DW$261       .dwtag  DW_TAG_TI_branch
    2488                      .dwattr $C$DW$261, DW_AT_low_pc(0x00)
    2489                      .dwattr $C$DW$261, DW_AT_name("_USER_computeTorque_Ls_Id_Iq_pu_to_Nm_sf")
    2490                      .dwattr $C$DW$261, DW_AT_TI_call
    2491 000001d5 7640!         LCR       #_USER_computeTorque_Ls_Id_Iq_pu_to_Nm_sf ; [CPU_] |289| 
         000001d6 0000 
    2492                      ; call occurs [#_USER_computeTorque_Ls_Id_Iq_pu_to_Nm_sf] ; [] |289| 
TMS320C2000 Assembler PC v6.4.6 Thu Sep 17 14:11:15 2015

Tools Copyright (c) 1996-2015 Texas Instruments Incorporated
C:\Users\Admiral\AppData\Local\Temp\0215610                          PAGE   51

    2493 000001d7 761F-         MOVW      DP,#_gTorque_Ls_Id_Iq_pu_to_Nm_sf ; [CPU_U] 
         000001d8 0000 
    2494 000001d9 1E12-         MOVL      @_gTorque_Ls_Id_Iq_pu_to_Nm_sf,ACC ; [CPU_] |289| 
    2495                      .dwpsn  file "../proj_lab05a.c",line 290,column 3,is_stmt,isa 0
    2496              $C$DW$262       .dwtag  DW_TAG_TI_branch
    2497                      .dwattr $C$DW$262, DW_AT_low_pc(0x00)
    2498                      .dwattr $C$DW$262, DW_AT_name("_USER_computeTorque_Flux_Iq_pu_to_Nm_sf")
    2499                      .dwattr $C$DW$262, DW_AT_TI_call
    2500 000001da 7640!         LCR       #_USER_computeTorque_Flux_Iq_pu_to_Nm_sf ; [CPU_] |290| 
         000001db 0000 
    2501                      ; call occurs [#_USER_computeTorque_Flux_Iq_pu_to_Nm_sf] ; [] |290| 
    2502 000001dc 761F-         MOVW      DP,#_gTorque_Flux_Iq_pu_to_Nm_sf ; [CPU_U] 
         000001dd 0000 
    2503 000001de 1E06-         MOVL      @_gTorque_Flux_Iq_pu_to_Nm_sf,ACC ; [CPU_] |290| 
    2504 000001df       $C$L14:    
    2505 000001df 761F-         MOVW      DP,#_gMotorVars       ; [CPU_U] 
         000001e0 0003 
    2506                      .dwpsn  file "../proj_lab05a.c",line 297,column 11,is_stmt,isa 0
    2507 000001e1 9200-         MOV       AL,@_gMotorVars       ; [CPU_] |297| 
    2508 000001e2 ECFD          BF        $C$L14,EQ             ; [CPU_] |297| 
    2509                      ; branchcc occurs ; [] |297| 
    2510 000001e3 761F-         MOVW      DP,#_ctrlHandle       ; [CPU_U] 
         000001e4 0000 
    2511                      .dwpsn  file "../proj_lab05a.c",line 300,column 5,is_stmt,isa 0
    2512 000001e5 860C-         MOVL      XAR2,@_ctrlHandle     ; [CPU_] |300| 
    2513                      .dwpsn  file "C:/ti/motorware/motorware_1_01_00_15/sw/modules/ctrl/src/32b/ctrl.h",line 1288,column 3
    2514 000001e6 D0F4          MOVB      XAR0,#244             ; [CPU_] |1288| 
    2515 000001e7 2B92          MOV       *+XAR2[AR0],#0        ; [CPU_] |1288| 
    2516                      .dwpsn  file "../proj_lab05a.c",line 303,column 5,is_stmt,isa 0
    2517 000001e8 FFEF          B         $C$L32,UNC            ; [CPU_] |303| 
         000001e9 0184 
    2518                      ; branch occurs ; [] |303| 
    2519 000001ea       $C$L15:    
    2520                      .dwpsn  file "../proj_lab05a.c",line 308,column 9,is_stmt,isa 0
    2521 000001ea 0A00-         INC       @_gCounter_updateGlobals ; [CPU_] |308| 
    2522                      .dwpsn  file "C:/ti/motorware/motorware_1_01_00_15/sw/modules/ctrl/src/32b/ctrl.h",line 1304,column 3
    2523 000001eb D0F5          MOVB      XAR0,#245             ; [CPU_] |1304| 
    2524                      .dwpsn  file "../proj_lab05a.c",line 311,column 9,is_stmt,isa 0
    2525 000001ec 92F1          MOV       AL,*+XAR1[6]          ; [CPU_] |311| 
    2526                      .dwpsn  file "C:/ti/motorware/motorware_1_01_00_15/sw/modules/ctrl/src/32b/ctrl.h",line 1304,column 3
    2527 000001ed 9692          MOV       *+XAR2[AR0],AL        ; [CPU_] |1304| 
    2528                      .dwpsn  file "../proj_lab05a.c",line 314,column 9,is_stmt,isa 0
    2529 000001ee D018          MOVB      XAR0,#24              ; [CPU_] |314| 
    2530 000001ef 8A92          MOVL      XAR4,*+XAR2[AR0]      ; [CPU_] |314| 
    2531 000001f0 92E9          MOV       AL,*+XAR1[5]          ; [CPU_] |314| 
    2532              $C$DW$263       .dwtag  DW_TAG_TI_branch
    2533                      .dwattr $C$DW$263, DW_AT_low_pc(0x00)
    2534                      .dwattr $C$DW$263, DW_AT_name("_EST_setFlag_enableRsRecalc")
    2535                      .dwattr $C$DW$263, DW_AT_TI_call
    2536 000001f1 7640!         LCR       #_EST_setFlag_enableRsRecalc ; [CPU_] |314| 
         000001f2 0000 
    2537                      ; call occurs [#_EST_setFlag_enableRsRecalc] ; [] |314| 
    2538 000001f3 761F-         MOVW      DP,#_ctrlHandle       ; [CPU_U] 
         000001f4 0000 
    2539                      .dwpsn  file "../proj_lab05a.c",line 317,column 9,is_stmt,isa 0
TMS320C2000 Assembler PC v6.4.6 Thu Sep 17 14:11:15 2015

Tools Copyright (c) 1996-2015 Texas Instruments Incorporated
C:\Users\Admiral\AppData\Local\Temp\0215610                          PAGE   52

    2540 000001f5 8A0C-         MOVL      XAR4,@_ctrlHandle     ; [CPU_] |317| 
    2541                      .dwpsn  file "C:/ti/motorware/motorware_1_01_00_15/sw/modules/ctrl/src/32b/ctrl.h",line 1275,column 3
    2542 000001f6 D0F3          MOVB      XAR0,#243             ; [CPU_] |1275| 
    2543                      .dwpsn  file "../proj_lab05a.c",line 317,column 9,is_stmt,isa 0
    2544 000001f7 92F9          MOV       AL,*+XAR1[7]          ; [CPU_] |317| 
    2545                      .dwpsn  file "C:/ti/motorware/motorware_1_01_00_15/sw/modules/ctrl/src/32b/ctrl.h",line 1275,column 3
    2546 000001f8 9694          MOV       *+XAR4[AR0],AL        ; [CPU_] |1275| 
    2547                      .dwpsn  file "C:/ti/motorware/motorware_1_01_00_15/sw/modules/ctrl/src/32b/ctrl.h",line 1060,column 3
    2548 000001f9 92E4          MOV       AL,*+XAR4[4]          ; [CPU_] |1060| 
    2549 000001fa 56C1          BF        $C$L26,EQ             ; [CPU_] |1060| 
         000001fb 00EF 
    2550                      ; branchcc occurs ; [] |1060| 
    2551                      .dwpsn  file "../proj_lab05a.c",line 334,column 40,is_stmt,isa 0
    2552              $C$DW$264       .dwtag  DW_TAG_TI_branch
    2553                      .dwattr $C$DW$264, DW_AT_low_pc(0x00)
    2554                      .dwattr $C$DW$264, DW_AT_name("_CTRL_updateState")
    2555                      .dwattr $C$DW$264, DW_AT_TI_call
    2556 000001fc 7640!         LCR       #_CTRL_updateState    ; [CPU_] |334| 
         000001fd 0000 
    2557                      ; call occurs [#_CTRL_updateState] ; [] |334| 
    2558 000001fe 761F-         MOVW      DP,#_ctrlHandle       ; [CPU_U] 
         000001ff 0000 
    2559                      .dwpsn  file "../proj_lab05a.c",line 337,column 13,is_stmt,isa 0
    2560 00000200 8A0C-         MOVL      XAR4,@_ctrlHandle     ; [CPU_] |337| 
    2561 00000201 93C9          MOV       AH,*+XAR1[1]          ; [CPU_] |337| 
    2562                      .dwpsn  file "C:/ti/motorware/motorware_1_01_00_15/sw/modules/ctrl/src/32b/ctrl.h",line 1218,column 3
    2563 00000202 D0F0          MOVB      XAR0,#240             ; [CPU_] |1218| 
    2564                      .dwpsn  file "../proj_lab05a.c",line 339,column 13,is_stmt,isa 0
    2565 00000203 5200          CMPB      AL,#0                 ; [CPU_] |339| 
    2566                      .dwpsn  file "C:/ti/motorware/motorware_1_01_00_15/sw/modules/ctrl/src/32b/ctrl.h",line 1218,column 3
    2567 00000204 9794          MOV       *+XAR4[AR0],AH        ; [CPU_] |1218| 
    2568                      .dwpsn  file "../proj_lab05a.c",line 339,column 13,is_stmt,isa 0
    2569 00000205 56C1          BF        $C$L27,EQ             ; [CPU_] |339| 
         00000206 0105 
    2570                      ; branchcc occurs ; [] |339| 
    2571                      .dwpsn  file "C:/ti/motorware/motorware_1_01_00_15/sw/modules/ctrl/src/32b/ctrl.h",line 771,column 3,
    2572 00000207 92E4          MOV       AL,*+XAR4[4]          ; [CPU_] |771| 
    2573 00000208 9647          MOV       *-SP[7],AL            ; [CPU_] |771| 
    2574 00000209 5202          CMPB      AL,#2                 ; [CPU_] |771| 
    2575 0000020a 56C1          BF        $C$L23,EQ             ; [CPU_] |771| 
         0000020b 00B2 
    2576                      ; branchcc occurs ; [] |771| 
    2577                      .dwpsn  file "../proj_lab05a.c",line 348,column 22,is_stmt,isa 0
    2578 0000020c 5203          CMPB      AL,#3                 ; [CPU_] |348| 
    2579 0000020d EC23          BF        $C$L16,EQ             ; [CPU_] |348| 
    2580                      ; branchcc occurs ; [] |348| 
    2581                      .dwpsn  file "../proj_lab05a.c",line 381,column 22,is_stmt,isa 0
    2582 0000020e 5201          CMPB      AL,#1                 ; [CPU_] |381| 
    2583 0000020f 56C0          BF        $C$L25,NEQ            ; [CPU_] |381| 
         00000210 00C9 
    2584                      ; branchcc occurs ; [] |381| 
    2585 00000211 761F-         MOVW      DP,#_halHandle        ; [CPU_U] 
         00000212 0000 
    2586                      .dwpsn  file "C:/Users/Admiral/workspace2_v6_1/proj_lab05a_with_SCI_and_CAP/include/hal/hal.h",line 2
    2587 00000213 C400-         MOVL      XAR6,@_halHandle      ; [CPU_] |248| 
TMS320C2000 Assembler PC v6.4.6 Thu Sep 17 14:11:15 2015

Tools Copyright (c) 1996-2015 Texas Instruments Incorporated
C:\Users\Admiral\AppData\Local\Temp\0215610                          PAGE   53

    2588 00000214 06A6          MOVL      ACC,XAR6              ; [CPU_] |248| 
    2589 00000215 0980          ADDB      ACC,#128              ; [CPU_] |248| 
    2590 00000216 83A9          MOVL      XAR5,ACC              ; [CPU_] |248| 
    2591 00000217 7622   EALLOW
    2592                      .dwpsn  file "C:/ti/motorware/motorware_1_01_00_15/sw/drivers/pwm/src/32b/f28x/f2802x/pwm.h",line 156
    2593 00000218 D07E          MOVB      XAR0,#126             ; [CPU_] |1567| 
    2594 00000219 0218          MOVB      ACC,#24               ; [CPU_] |1567| 
    2595 0000021a 0796          ADDL      ACC,*+XAR6[AR0]       ; [CPU_] |1567| 
    2596 0000021b 1EA6          MOVL      XAR6,ACC              ; [CPU_] |1567| 
    2597 0000021c 1AC6          OR        *+XAR6[0],#0x0004     ; [CPU_] |1567| 
         0000021d 0004 
    2598 0000021e 761A   EDIS
    2599 0000021f 7622   EALLOW
    2600 00000220 0218          MOVB      ACC,#24               ; [CPU_] |1567| 
    2601 00000221 07C5          ADDL      ACC,*+XAR5[0]         ; [CPU_] |1567| 
    2602 00000222 1EA6          MOVL      XAR6,ACC              ; [CPU_] |1567| 
    2603 00000223 1AC6          OR        *+XAR6[0],#0x0004     ; [CPU_] |1567| 
         00000224 0004 
    2604 00000225 761A   EDIS
    2605 00000226 7622   EALLOW
    2606 00000227 0218          MOVB      ACC,#24               ; [CPU_] |1567| 
    2607 00000228 07D5          ADDL      ACC,*+XAR5[2]         ; [CPU_] |1567| 
    2608 00000229 83A9          MOVL      XAR5,ACC              ; [CPU_] |1567| 
    2609 0000022a 1AC5          OR        *+XAR5[0],#0x0004     ; [CPU_] |1567| 
         0000022b 0004 
    2610 0000022c 761A   EDIS
    2611                      .dwpsn  file "../proj_lab05a.c",line 385,column 21,is_stmt,isa 0
    2612 0000022d 2BC9          MOV       *+XAR1[1],#0          ; [CPU_] |385| 
    2613 0000022e FFEF          B         $C$L25,UNC            ; [CPU_] |385| 
         0000022f 00AA 
    2614                      ; branch occurs ; [] |385| 
    2615 00000230       $C$L16:    
    2616 00000230 761F-         MOVW      DP,#_gMotorVars+7     ; [CPU_U] 
         00000231 0003 
    2617                      .dwpsn  file "../proj_lab05a.c",line 350,column 21,is_stmt,isa 0
    2618 00000232 9207-         MOV       AL,@_gMotorVars+7     ; [CPU_] |350| 
    2619 00000233 5201          CMPB      AL,#1                 ; [CPU_] |350| 
    2620 00000234 EC23          BF        $C$L17,EQ             ; [CPU_] |350| 
    2621                      ; branchcc occurs ; [] |350| 
    2622 00000235 761F-         MOVW      DP,#_halHandle        ; [CPU_U] 
         00000236 0000 
    2623                      .dwpsn  file "../proj_lab05a.c",line 358,column 23,is_stmt,isa 0
    2624 00000237 C400-         MOVL      XAR6,@_halHandle      ; [CPU_] |358| 
    2625                      .dwpsn  file "C:/Users/Admiral/workspace2_v6_1/proj_lab05a_with_SCI_and_CAP/include/hal/hal.h",line 7
    2626 00000238 D094          MOVB      XAR0,#148             ; [CPU_] |736| 
    2627 00000239 28A9          MOV       AL,#62052             ; [CPU_] |736| 
         0000023a F264 
    2628 0000023b 28A8          MOV       AH,#309               ; [CPU_] |736| 
         0000023c 0135 
    2629                      .dwpsn  file "../proj_lab05a.c",line 358,column 23,is_stmt,isa 0
    2630 0000023d 83A6          MOVL      XAR5,XAR6             ; [CPU_] |358| 
    2631                      .dwpsn  file "C:/Users/Admiral/workspace2_v6_1/proj_lab05a_with_SCI_and_CAP/include/hal/hal.h",line 7
    2632 0000023e 1E96          MOVL      *+XAR6[AR0],ACC       ; [CPU_] |736| 
    2633 0000023f D018          MOVB      XAR0,#24              ; [CPU_] |736| 
    2634 00000240 28A9          MOV       AL,#40436             ; [CPU_] |736| 
TMS320C2000 Assembler PC v6.4.6 Thu Sep 17 14:11:15 2015

Tools Copyright (c) 1996-2015 Texas Instruments Incorporated
C:\Users\Admiral\AppData\Local\Temp\0215610                          PAGE   54

         00000241 9DF4 
    2635                      .dwpsn  file "../proj_lab05a.c",line 358,column 23,is_stmt,isa 0
    2636 00000242 DD7E          ADDB      XAR5,#126             ; [CPU_] |358| 
    2637                      .dwpsn  file "C:/Users/Admiral/workspace2_v6_1/proj_lab05a_with_SCI_and_CAP/include/hal/hal.h",line 7
    2638 00000243 1E95          MOVL      *+XAR5[AR0],ACC       ; [CPU_] |736| 
    2639 00000244 D01A          MOVB      XAR0,#26              ; [CPU_] |736| 
    2640 00000245 28A9          MOV       AL,#34588             ; [CPU_] |736| 
         00000246 871C 
    2641 00000247 1E95          MOVL      *+XAR5[AR0],ACC       ; [CPU_] |736| 
    2642                      .dwpsn  file "C:/Users/Admiral/workspace2_v6_1/proj_lab05a_with_SCI_and_CAP/include/hal/hal.h",line 7
    2643 00000248 D01C          MOVB      XAR0,#28              ; [CPU_] |740| 
    2644 00000249 28A9          MOV       AL,#10793             ; [CPU_] |740| 
         0000024a 2A29 
    2645 0000024b 9B82          MOV       AH,#130               ; [CPU_] |740| 
    2646 0000024c 1E95          MOVL      *+XAR5[AR0],ACC       ; [CPU_] |740| 
    2647 0000024d D01E          MOVB      XAR0,#30              ; [CPU_] |740| 
    2648 0000024e 28A9          MOV       AL,#59018             ; [CPU_] |740| 
         0000024f E68A 
    2649 00000250 9B81          MOV       AH,#129               ; [CPU_] |740| 
    2650 00000251 1E95          MOVL      *+XAR5[AR0],ACC       ; [CPU_] |740| 
    2651 00000252 D020          MOVB      XAR0,#32              ; [CPU_] |740| 
    2652 00000253 28A9          MOV       AL,#44414             ; [CPU_] |740| 
         00000254 AD7E 
    2653 00000255 1E95          MOVL      *+XAR5[AR0],ACC       ; [CPU_] |740| 
    2654 00000256 6F3E          B         $C$L22,UNC            ; [CPU_] |740| 
    2655                      ; branch occurs ; [] |740| 
    2656 00000257       $C$L17:    
    2657 00000257 761F-         MOVW      DP,#_halHandle        ; [CPU_U] 
         00000258 0000 
    2658                      .dwpsn  file "../proj_lab05a.c",line 353,column 23,is_stmt,isa 0
    2659 00000259 C400-         MOVL      XAR6,@_halHandle      ; [CPU_] |353| 
    2660 0000025a 83A6          MOVL      XAR5,XAR6             ; [CPU_] |353| 
    2661                      .dwpsn  file "C:/Users/Admiral/workspace2_v6_1/proj_lab05a_with_SCI_and_CAP/include/hal/hal.h",line 1
    2662 0000025b 9A00          MOVB      AL,#0                 ; [CPU_] |1017| 
    2663 0000025c 9648          MOV       *-SP[8],AL            ; [CPU_] |1017| 
    2664                      .dwpsn  file "../proj_lab05a.c",line 353,column 23,is_stmt,isa 0
    2665 0000025d DD7E          ADDB      XAR5,#126             ; [CPU_] |353| 
    2666 0000025e 2901          CLRC      SXM                   ; [CPU_] 
    2667                      .dwpsn  file "C:/Users/Admiral/workspace2_v6_1/proj_lab05a_with_SCI_and_CAP/include/hal/hal.h",line 1
    2668 0000025f 6F14          B         $C$L19,UNC            ; [CPU_] |1017| 
    2669                      ; branch occurs ; [] |1017| 
    2670 00000260       $C$L18:    
    2671                      .dwpsn  file "C:/Users/Admiral/workspace2_v6_1/proj_lab05a_with_SCI_and_CAP/include/hal/hal.h",line 3
    2672 00000260 5603          MOV       ACC,AL << 1           ; [CPU_] |342| 
         00000261 01A9 
    2673 00000262 1EAC          MOVL      XT,ACC                ; [CPU_] |342| 
    2674                      .dwpsn  file "C:/Users/Admiral/workspace2_v6_1/proj_lab05a_with_SCI_and_CAP/include/hal/hal.h",line 1
    2675 00000263 8BA6          MOVL      XAR1,XAR6             ; [CPU_] |1021| 
    2676                      .dwpsn  file "C:/Users/Admiral/workspace2_v6_1/proj_lab05a_with_SCI_and_CAP/include/hal/hal.h",line 3
    2677 00000264 06A6          MOVL      ACC,XAR6              ; [CPU_] |342| 
    2678 00000265 07AC          ADDL      ACC,XT                ; [CPU_] |342| 
    2679 00000266 1EA7          MOVL      XAR7,ACC              ; [CPU_] |342| 
    2680                      .dwpsn  file "C:/Users/Admiral/workspace2_v6_1/proj_lab05a_with_SCI_and_CAP/include/hal/hal.h",line 1
    2681 00000267 ABA9          MOVL      ACC,XT                ; [CPU_] |1021| 
    2682 00000268 5601          ADDL      XAR1,ACC              ; [CPU_] |1021| 
TMS320C2000 Assembler PC v6.4.6 Thu Sep 17 14:11:15 2015

Tools Copyright (c) 1996-2015 Texas Instruments Incorporated
C:\Users\Admiral\AppData\Local\Temp\0215610                          PAGE   55

         00000269 00A1 
    2683                      .dwpsn  file "C:/Users/Admiral/workspace2_v6_1/proj_lab05a_with_SCI_and_CAP/include/hal/hal.h",line 3
    2684 0000026a D094          MOVB      XAR0,#148             ; [CPU_] |342| 
    2685 0000026b 0697          MOVL      ACC,*+XAR7[AR0]       ; [CPU_] |342| 
    2686                      .dwpsn  file "C:/Users/Admiral/workspace2_v6_1/proj_lab05a_with_SCI_and_CAP/include/hal/hal.h",line 1
    2687 0000026c D00C          MOVB      XAR0,#12              ; [CPU_] |1021| 
    2688 0000026d 8E91          MOVL      XAR0,*+XAR1[AR0]      ; [CPU_] |1021| 
    2689 0000026e 07C0          ADDL      ACC,*+XAR0[0]         ; [CPU_] |1021| 
    2690                      .dwpsn  file "C:/Users/Admiral/workspace2_v6_1/proj_lab05a_with_SCI_and_CAP/include/hal/hal.h",line 7
    2691 0000026f D094          MOVB      XAR0,#148             ; [CPU_] |736| 
    2692 00000270 1E97          MOVL      *+XAR7[AR0],ACC       ; [CPU_] |736| 
    2693                      .dwpsn  file "C:/Users/Admiral/workspace2_v6_1/proj_lab05a_with_SCI_and_CAP/include/hal/hal.h",line 1
    2694 00000271 0A48          INC       *-SP[8]               ; [CPU_] |1017| 
    2695                      .dwpsn  file "C:/Users/Admiral/workspace2_v6_1/proj_lab05a_with_SCI_and_CAP/include/hal/hal.h",line 7
    2696 00000272 9248          MOV       AL,*-SP[8]            ; [CPU_] |736| 
    2697 00000273       $C$L19:    
    2698                      .dwpsn  file "C:/Users/Admiral/workspace2_v6_1/proj_lab05a_with_SCI_and_CAP/include/hal/hal.h",line 1
    2699 00000273 D0A6          MOVB      XAR0,#166             ; [CPU_] |1017| 
    2700 00000274 5496          CMP       AL,*+XAR6[AR0]        ; [CPU_] |1017| 
    2701 00000275 56C8          BF        $C$L18,LO             ; [CPU_] |1017| 
         00000276 FFEB 
    2702                      ; branchcc occurs ; [] |1017| 
    2703                      .dwpsn  file "C:/Users/Admiral/workspace2_v6_1/proj_lab05a_with_SCI_and_CAP/include/hal/hal.h",line 1
    2704 00000277 2BAC          MOV       T,#0                  ; [CPU_] |1028| 
    2705 00000278 2901          CLRC      SXM                   ; [CPU_] 
    2706 00000279 6F16          B         $C$L21,UNC            ; [CPU_] |1028| 
    2707                      ; branch occurs ; [] |1028| 
    2708 0000027a       $C$L20:    
    2709                      .dwpsn  file "C:/Users/Admiral/workspace2_v6_1/proj_lab05a_with_SCI_and_CAP/include/hal/hal.h",line 3
    2710 0000027a 5603          MOV       ACC,AL << 1           ; [CPU_] |342| 
         0000027b 01A9 
    2711 0000027c 1E4A          MOVL      *-SP[10],ACC          ; [CPU_] |342| 
    2712 0000027d C54A          MOVL      XAR7,*-SP[10]         ; [CPU_] |342| 
    2713                      .dwpsn  file "C:/Users/Admiral/workspace2_v6_1/proj_lab05a_with_SCI_and_CAP/include/hal/hal.h",line 1
    2714 0000027e 8BA6          MOVL      XAR1,XAR6             ; [CPU_] |1032| 
    2715                      .dwpsn  file "C:/Users/Admiral/workspace2_v6_1/proj_lab05a_with_SCI_and_CAP/include/hal/hal.h",line 3
    2716 0000027f 06A6          MOVL      ACC,XAR6              ; [CPU_] |342| 
    2717 00000280 5601          ADDL      XAR7,ACC              ; [CPU_] |342| 
         00000281 00A7 
    2718                      .dwpsn  file "C:/Users/Admiral/workspace2_v6_1/proj_lab05a_with_SCI_and_CAP/include/hal/hal.h",line 1
    2719 00000282 064A          MOVL      ACC,*-SP[10]          ; [CPU_] |1032| 
    2720 00000283 5601          ADDL      XAR1,ACC              ; [CPU_] |1032| 
         00000284 00A1 
    2721                      .dwpsn  file "C:/Users/Admiral/workspace2_v6_1/proj_lab05a_with_SCI_and_CAP/include/hal/hal.h",line 3
    2722 00000285 D09A          MOVB      XAR0,#154             ; [CPU_] |342| 
    2723 00000286 0697          MOVL      ACC,*+XAR7[AR0]       ; [CPU_] |342| 
    2724                      .dwpsn  file "C:/Users/Admiral/workspace2_v6_1/proj_lab05a_with_SCI_and_CAP/include/hal/hal.h",line 1
    2725 00000287 D042          MOVB      XAR0,#66              ; [CPU_] |1032| 
    2726 00000288 8E91          MOVL      XAR0,*+XAR1[AR0]      ; [CPU_] |1032| 
    2727 00000289 07C0          ADDL      ACC,*+XAR0[0]         ; [CPU_] |1032| 
    2728                      .dwpsn  file "C:/Users/Admiral/workspace2_v6_1/proj_lab05a_with_SCI_and_CAP/include/hal/hal.h",line 7
    2729 0000028a D09A          MOVB      XAR0,#154             ; [CPU_] |740| 
    2730 0000028b 1E97          MOVL      *+XAR7[AR0],ACC       ; [CPU_] |740| 
    2731 0000028c 92AC          MOV       AL,T                  ; [CPU_] |740| 
    2732                      .dwpsn  file "C:/Users/Admiral/workspace2_v6_1/proj_lab05a_with_SCI_and_CAP/include/hal/hal.h",line 1
TMS320C2000 Assembler PC v6.4.6 Thu Sep 17 14:11:15 2015

Tools Copyright (c) 1996-2015 Texas Instruments Incorporated
C:\Users\Admiral\AppData\Local\Temp\0215610                          PAGE   56

    2733 0000028d 9C01          ADDB      AL,#1                 ; [CPU_] |1028| 
    2734 0000028e 2DA9          MOV       T,AL                  ; [CPU_] |1028| 
    2735 0000028f       $C$L21:    
    2736                      .dwpsn  file "C:/Users/Admiral/workspace2_v6_1/proj_lab05a_with_SCI_and_CAP/include/hal/hal.h",line 1
    2737 0000028f D0A7          MOVB      XAR0,#167             ; [CPU_] |1028| 
    2738 00000290 92AC          MOV       AL,T                  ; [CPU_] |1028| 
    2739 00000291 5496          CMP       AL,*+XAR6[AR0]        ; [CPU_] |1028| 
    2740 00000292 56C8          BF        $C$L20,LO             ; [CPU_] |1028| 
         00000293 FFE8 
    2741                      ; branchcc occurs ; [] |1028| 
    2742 00000294       $C$L22:    
    2743                      .dwpsn  file "../proj_lab05a.c",line 369,column 21,is_stmt,isa 0
    2744 00000294 D016          MOVB      XAR0,#22              ; [CPU_] |369| 
    2745 00000295 7680-         MOVL      XAR6,#_gMotorVars+92  ; [CPU_U] |369| 
         00000296 011C 
    2746 00000297 0695          MOVL      ACC,*+XAR5[AR0]       ; [CPU_] |369| 
    2747                      .dwpsn  file "../proj_lab05a.c",line 370,column 21,is_stmt,isa 0
    2748 00000298 D018          MOVB      XAR0,#24              ; [CPU_] |370| 
    2749                      .dwpsn  file "../proj_lab05a.c",line 369,column 21,is_stmt,isa 0
    2750 00000299 1EC6          MOVL      *+XAR6[0],ACC         ; [CPU_] |369| 
    2751                      .dwpsn  file "../proj_lab05a.c",line 370,column 21,is_stmt,isa 0
    2752 0000029a 0695          MOVL      ACC,*+XAR5[AR0]       ; [CPU_] |370| 
    2753                      .dwpsn  file "../proj_lab05a.c",line 371,column 21,is_stmt,isa 0
    2754 0000029b D01A          MOVB      XAR0,#26              ; [CPU_] |371| 
    2755                      .dwpsn  file "../proj_lab05a.c",line 370,column 21,is_stmt,isa 0
    2756 0000029c 1ED6          MOVL      *+XAR6[2],ACC         ; [CPU_] |370| 
    2757                      .dwpsn  file "../proj_lab05a.c",line 371,column 21,is_stmt,isa 0
    2758 0000029d 0695          MOVL      ACC,*+XAR5[AR0]       ; [CPU_] |371| 
    2759                      .dwpsn  file "../proj_lab05a.c",line 374,column 21,is_stmt,isa 0
    2760 0000029e D01C          MOVB      XAR0,#28              ; [CPU_] |374| 
    2761                      .dwpsn  file "../proj_lab05a.c",line 371,column 21,is_stmt,isa 0
    2762 0000029f 1EE6          MOVL      *+XAR6[4],ACC         ; [CPU_] |371| 
    2763                      .dwpsn  file "../proj_lab05a.c",line 374,column 21,is_stmt,isa 0
    2764 000002a0 0695          MOVL      ACC,*+XAR5[AR0]       ; [CPU_] |374| 
    2765                      .dwpsn  file "../proj_lab05a.c",line 375,column 21,is_stmt,isa 0
    2766 000002a1 D01E          MOVB      XAR0,#30              ; [CPU_] |375| 
    2767                      .dwpsn  file "../proj_lab05a.c",line 374,column 21,is_stmt,isa 0
    2768 000002a2 1EF6          MOVL      *+XAR6[6],ACC         ; [CPU_] |374| 
    2769                      .dwpsn  file "../proj_lab05a.c",line 375,column 21,is_stmt,isa 0
    2770 000002a3 0695          MOVL      ACC,*+XAR5[AR0]       ; [CPU_] |375| 
    2771 000002a4 D008          MOVB      XAR0,#8               ; [CPU_] |375| 
    2772 000002a5 1E96          MOVL      *+XAR6[AR0],ACC       ; [CPU_] |375| 
    2773                      .dwpsn  file "../proj_lab05a.c",line 376,column 21,is_stmt,isa 0
    2774 000002a6 D020          MOVB      XAR0,#32              ; [CPU_] |376| 
    2775 000002a7 0695          MOVL      ACC,*+XAR5[AR0]       ; [CPU_] |376| 
    2776 000002a8 D00A          MOVB      XAR0,#10              ; [CPU_] |376| 
    2777 000002a9 1E96          MOVL      *+XAR6[AR0],ACC       ; [CPU_] |376| 
    2778 000002aa 7622   EALLOW
    2779                      .dwpsn  file "C:/ti/motorware/motorware_1_01_00_15/sw/drivers/pwm/src/32b/f28x/f2802x/pwm.h",line 951
    2780 000002ab 0217          MOVB      ACC,#23               ; [CPU_] |951| 
    2781 000002ac 07C5          ADDL      ACC,*+XAR5[0]         ; [CPU_] |951| 
    2782 000002ad 1EA6          MOVL      XAR6,ACC              ; [CPU_] |951| 
    2783 000002ae 56BF          MOVB      *+XAR6[0],#4,UNC      ; [CPU_] |951| 
         000002af 04C6 
    2784 000002b0 761A   EDIS
TMS320C2000 Assembler PC v6.4.6 Thu Sep 17 14:11:15 2015

Tools Copyright (c) 1996-2015 Texas Instruments Incorporated
C:\Users\Admiral\AppData\Local\Temp\0215610                          PAGE   57

    2785 000002b1 7622   EALLOW
    2786 000002b2 0217          MOVB      ACC,#23               ; [CPU_] |951| 
    2787 000002b3 07D5          ADDL      ACC,*+XAR5[2]         ; [CPU_] |951| 
    2788 000002b4 1EA6          MOVL      XAR6,ACC              ; [CPU_] |951| 
    2789 000002b5 56BF          MOVB      *+XAR6[0],#4,UNC      ; [CPU_] |951| 
         000002b6 04C6 
    2790 000002b7 761A   EDIS
    2791 000002b8 7622   EALLOW
    2792 000002b9 0217          MOVB      ACC,#23               ; [CPU_] |951| 
    2793 000002ba 07E5          ADDL      ACC,*+XAR5[4]         ; [CPU_] |951| 
    2794                      .dwpsn  file "C:/ti/motorware/motorware_1_01_00_15/sw/drivers/pwm/src/32b/f28x/f2802x/pwm.h",line 955
    2795 000002bb 6F19          B         $C$L24,UNC            ; [CPU_] |955| 
    2796                      ; branch occurs ; [] |955| 
    2797 000002bc       $C$L23:    
    2798 000002bc 761F-         MOVW      DP,#_halHandle        ; [CPU_U] 
         000002bd 0000 
    2799                      .dwpsn  file "C:/Users/Admiral/workspace2_v6_1/proj_lab05a_with_SCI_and_CAP/include/hal/hal.h",line 2
    2800 000002be C500-         MOVL      XAR7,@_halHandle      ; [CPU_] |290| 
    2801 000002bf 06A7          MOVL      ACC,XAR7              ; [CPU_] |290| 
    2802 000002c0 0980          ADDB      ACC,#128              ; [CPU_] |290| 
    2803 000002c1 1EA6          MOVL      XAR6,ACC              ; [CPU_] |290| 
    2804 000002c2 7622   EALLOW
    2805                      .dwpsn  file "C:/ti/motorware/motorware_1_01_00_15/sw/drivers/pwm/src/32b/f28x/f2802x/pwm.h",line 951
    2806 000002c3 D07E          MOVB      XAR0,#126             ; [CPU_] |951| 
    2807 000002c4 0217          MOVB      ACC,#23               ; [CPU_] |951| 
    2808 000002c5 0797          ADDL      ACC,*+XAR7[AR0]       ; [CPU_] |951| 
    2809 000002c6 83A9          MOVL      XAR5,ACC              ; [CPU_] |951| 
    2810 000002c7 56BF          MOVB      *+XAR5[0],#4,UNC      ; [CPU_] |951| 
         000002c8 04C5 
    2811 000002c9 761A   EDIS
    2812 000002ca 7622   EALLOW
    2813 000002cb 0217          MOVB      ACC,#23               ; [CPU_] |951| 
    2814 000002cc 07C6          ADDL      ACC,*+XAR6[0]         ; [CPU_] |951| 
    2815 000002cd 83A9          MOVL      XAR5,ACC              ; [CPU_] |951| 
    2816 000002ce 56BF          MOVB      *+XAR5[0],#4,UNC      ; [CPU_] |951| 
         000002cf 04C5 
    2817 000002d0 761A   EDIS
    2818 000002d1 7622   EALLOW
    2819 000002d2 0217          MOVB      ACC,#23               ; [CPU_] |951| 
    2820 000002d3 07D6          ADDL      ACC,*+XAR6[2]         ; [CPU_] |951| 
    2821 000002d4       $C$L24:    
    2822 000002d4 83A9          MOVL      XAR5,ACC              ; [CPU_] |951| 
    2823 000002d5 56BF          MOVB      *+XAR5[0],#4,UNC      ; [CPU_] |951| 
         000002d6 04C5 
    2824 000002d7 761A   EDIS
    2825 000002d8       $C$L25:    
    2826                      .dwpsn  file "../proj_lab05a.c",line 388,column 17,is_stmt,isa 0
    2827 000002d8 D0F5          MOVB      XAR0,#245             ; [CPU_] |388| 
    2828 000002d9 9294          MOV       AL,*+XAR4[AR0]        ; [CPU_] |388| 
    2829 000002da 5201          CMPB      AL,#1                 ; [CPU_] |388| 
    2830 000002db ED2F          BF        $C$L27,NEQ            ; [CPU_] |388| 
    2831                      ; branchcc occurs ; [] |388| 
    2832 000002dc 9247          MOV       AL,*-SP[7]            ; [CPU_] 
    2833 000002dd 5201          CMPB      AL,#1                 ; [CPU_] |388| 
    2834 000002de 56C9          BF        $C$L27,LOS            ; [CPU_] |388| 
TMS320C2000 Assembler PC v6.4.6 Thu Sep 17 14:11:15 2015

Tools Copyright (c) 1996-2015 Texas Instruments Incorporated
C:\Users\Admiral\AppData\Local\Temp\0215610                          PAGE   58

         000002df 002C 
    2835                      ; branchcc occurs ; [] |388| 
    2836 000002e0 761F-         MOVW      DP,#_gMotorVars+16    ; [CPU_U] 
         000002e1 0003 
    2837 000002e2 9210-         MOV       AL,@_gMotorVars+16    ; [CPU_] |388| 
    2838 000002e3 5206          CMPB      AL,#6                 ; [CPU_] |388| 
    2839 000002e4 ED26          BF        $C$L27,NEQ            ; [CPU_] |388| 
    2840                      ; branchcc occurs ; [] |388| 
    2841 000002e5 FF69          SPM       #0                    ; [CPU_] 
    2842                      .dwpsn  file "../proj_lab05a.c",line 393,column 21,is_stmt,isa 0
    2843              $C$DW$265       .dwtag  DW_TAG_TI_branch
    2844                      .dwattr $C$DW$265, DW_AT_low_pc(0x00)
    2845                      .dwattr $C$DW$265, DW_AT_name("_USER_softwareUpdate1p6")
    2846                      .dwattr $C$DW$265, DW_AT_TI_call
    2847 000002e6 7640!         LCR       #_USER_softwareUpdate1p6 ; [CPU_] |393| 
         000002e7 0000 
    2848                      ; call occurs [#_USER_softwareUpdate1p6] ; [] |393| 
    2849 000002e8 6F22          B         $C$L27,UNC            ; [CPU_] |393| 
    2850                      ; branch occurs ; [] |393| 
    2851 000002e9       $C$L26:    
    2852                      .dwpsn  file "C:/ti/motorware/motorware_1_01_00_15/sw/modules/ctrl/src/32b/ctrl.h",line 1218,column 3
    2853 000002e9 D0F0          MOVB      XAR0,#240             ; [CPU_] |1218| 
    2854 000002ea 761F-         MOVW      DP,#_gMotorVars       ; [CPU_U] 
         000002eb 0003 
    2855 000002ec 2B94          MOV       *+XAR4[AR0],#0        ; [CPU_] |1218| 
    2856                      .dwpsn  file "../proj_lab05a.c",line 326,column 13,is_stmt,isa 0
    2857 000002ed 2B00-         MOV       @_gMotorVars,#0       ; [CPU_] |326| 
    2858 000002ee 761F-         MOVW      DP,#_halHandle        ; [CPU_U] 
         000002ef 0000 
    2859                      .dwpsn  file "C:/Users/Admiral/workspace2_v6_1/proj_lab05a_with_SCI_and_CAP/include/hal/hal.h",line 2
    2860 000002f0 8300-         MOVL      XAR5,@_halHandle      ; [CPU_] |248| 
    2861 000002f1 A0A9          MOVL      ACC,XAR5              ; [CPU_] |248| 
    2862 000002f2 0980          ADDB      ACC,#128              ; [CPU_] |248| 
    2863 000002f3 8AA9          MOVL      XAR4,ACC              ; [CPU_] |248| 
    2864 000002f4 7622   EALLOW
    2865                      .dwpsn  file "C:/ti/motorware/motorware_1_01_00_15/sw/drivers/pwm/src/32b/f28x/f2802x/pwm.h",line 156
    2866 000002f5 D07E          MOVB      XAR0,#126             ; [CPU_] |1567| 
    2867 000002f6 0218          MOVB      ACC,#24               ; [CPU_] |1567| 
    2868 000002f7 0795          ADDL      ACC,*+XAR5[AR0]       ; [CPU_] |1567| 
    2869 000002f8 83A9          MOVL      XAR5,ACC              ; [CPU_] |1567| 
    2870 000002f9 1AC5          OR        *+XAR5[0],#0x0004     ; [CPU_] |1567| 
         000002fa 0004 
    2871 000002fb 761A   EDIS
    2872 000002fc 7622   EALLOW
    2873 000002fd 0218          MOVB      ACC,#24               ; [CPU_] |1567| 
    2874 000002fe 07C4          ADDL      ACC,*+XAR4[0]         ; [CPU_] |1567| 
    2875 000002ff 83A9          MOVL      XAR5,ACC              ; [CPU_] |1567| 
    2876 00000300 1AC5          OR        *+XAR5[0],#0x0004     ; [CPU_] |1567| 
         00000301 0004 
    2877 00000302 761A   EDIS
    2878 00000303 7622   EALLOW
    2879 00000304 0218          MOVB      ACC,#24               ; [CPU_] |1567| 
    2880 00000305 07D4          ADDL      ACC,*+XAR4[2]         ; [CPU_] |1567| 
    2881 00000306 8AA9          MOVL      XAR4,ACC              ; [CPU_] |1567| 
    2882 00000307 1AC4          OR        *+XAR4[0],#0x0004     ; [CPU_] |1567| 
TMS320C2000 Assembler PC v6.4.6 Thu Sep 17 14:11:15 2015

Tools Copyright (c) 1996-2015 Texas Instruments Incorporated
C:\Users\Admiral\AppData\Local\Temp\0215610                          PAGE   59

         00000308 0004 
    2883 00000309 761A   EDIS
    2884 0000030a       $C$L27:    
    2885                      .dwpsn  file "../proj_lab05a.c",line 400,column 9,is_stmt,isa 0
    2886 0000030a D018          MOVB      XAR0,#24              ; [CPU_] |400| 
    2887 0000030b FF69          SPM       #0                    ; [CPU_] 
    2888 0000030c 8A92          MOVL      XAR4,*+XAR2[AR0]      ; [CPU_] |400| 
    2889              $C$DW$266       .dwtag  DW_TAG_TI_branch
    2890                      .dwattr $C$DW$266, DW_AT_low_pc(0x00)
    2891                      .dwattr $C$DW$266, DW_AT_name("_EST_isMotorIdentified")
    2892                      .dwattr $C$DW$266, DW_AT_TI_call
    2893 0000030d 7640!         LCR       #_EST_isMotorIdentified ; [CPU_] |400| 
         0000030e 0000 
    2894                      ; call occurs [#_EST_isMotorIdentified] ; [] |400| 
    2895 0000030f 5200          CMPB      AL,#0                 ; [CPU_] |400| 
    2896 00000310 EC23          BF        $C$L28,EQ             ; [CPU_] |400| 
    2897                      ; branchcc occurs ; [] |400| 
    2898                      .dwpsn  file "../proj_lab05a.c",line 403,column 13,is_stmt,isa 0
    2899 00000311 D018          MOVB      XAR0,#24              ; [CPU_] |403| 
    2900 00000312 761F-         MOVW      DP,#_gMaxCurrentSlope ; [CPU_U] 
         00000313 0000 
    2901 00000314 8A92          MOVL      XAR4,*+XAR2[AR0]      ; [CPU_] |403| 
    2902 00000315 060E-         MOVL      ACC,@_gMaxCurrentSlope ; [CPU_] |403| 
    2903              $C$DW$267       .dwtag  DW_TAG_TI_branch
    2904                      .dwattr $C$DW$267, DW_AT_low_pc(0x00)
    2905                      .dwattr $C$DW$267, DW_AT_name("_EST_setMaxCurrentSlope_pu")
    2906                      .dwattr $C$DW$267, DW_AT_TI_call
    2907 00000316 7640!         LCR       #_EST_setMaxCurrentSlope_pu ; [CPU_] |403| 
         00000317 0000 
    2908                      ; call occurs [#_EST_setMaxCurrentSlope_pu] ; [] |403| 
    2909 00000318 761F-         MOVW      DP,#_gMotorVars+2     ; [CPU_U] 
         00000319 0003 
    2910                      .dwpsn  file "../proj_lab05a.c",line 404,column 13,is_stmt,isa 0
    2911 0000031a 56BF-         MOVB      @_gMotorVars+2,#1,UNC ; [CPU_] |404| 
         0000031b 0102 
    2912 0000031c 761F-         MOVW      DP,#_Flag_Latch_softwareUpdate ; [CPU_U] 
         0000031d 0000 
    2913                      .dwpsn  file "../proj_lab05a.c",line 407,column 13,is_stmt,isa 0
    2914 0000031e 9201-         MOV       AL,@_Flag_Latch_softwareUpdate ; [CPU_] |407| 
    2915 0000031f 5201          CMPB      AL,#1                 ; [CPU_] |407| 
    2916 00000320 ED1E          BF        $C$L29,NEQ            ; [CPU_] |407| 
    2917                      ; branchcc occurs ; [] |407| 
    2918                      .dwpsn  file "../proj_lab05a.c",line 411,column 15,is_stmt,isa 0
    2919 00000321 8A0C-         MOVL      XAR4,@_ctrlHandle     ; [CPU_] |411| 
    2920                      .dwpsn  file "../proj_lab05a.c",line 409,column 15,is_stmt,isa 0
    2921 00000322 2B01-         MOV       @_Flag_Latch_softwareUpdate,#0 ; [CPU_] |409| 
    2922                      .dwpsn  file "../proj_lab05a.c",line 411,column 15,is_stmt,isa 0
    2923              $C$DW$268       .dwtag  DW_TAG_TI_branch
    2924                      .dwattr $C$DW$268, DW_AT_low_pc(0x00)
    2925                      .dwattr $C$DW$268, DW_AT_name("_USER_calcPIgains")
    2926                      .dwattr $C$DW$268, DW_AT_TI_call
    2927 00000323 7640!         LCR       #_USER_calcPIgains    ; [CPU_] |411| 
         00000324 0000 
    2928                      ; call occurs [#_USER_calcPIgains] ; [] |411| 
    2929 00000325 761F-         MOVW      DP,#_ctrlHandle       ; [CPU_U] 
TMS320C2000 Assembler PC v6.4.6 Thu Sep 17 14:11:15 2015

Tools Copyright (c) 1996-2015 Texas Instruments Incorporated
C:\Users\Admiral\AppData\Local\Temp\0215610                          PAGE   60

         00000326 0000 
    2930                      .dwpsn  file "../proj_lab05a.c",line 414,column 15,is_stmt,isa 0
    2931 00000327 8A0C-         MOVL      XAR4,@_ctrlHandle     ; [CPU_] |414| 
    2932 00000328 D0CA          MOVB      XAR0,#202             ; [CPU_] |414| 
    2933 00000329 D148          MOVB      XAR1,#72              ; [CPU_] |414| 
    2934 0000032a 8F40-         MOVL      XAR5,#_gMotorVars     ; [CPU_U] |414| 
         0000032b 00C0 
    2935 0000032c 0694          MOVL      ACC,*+XAR4[AR0]       ; [CPU_] |414| 
    2936                      .dwpsn  file "../proj_lab05a.c",line 415,column 15,is_stmt,isa 0
    2937 0000032d D0D0          MOVB      XAR0,#208             ; [CPU_] |415| 
    2938                      .dwpsn  file "../proj_lab05a.c",line 414,column 15,is_stmt,isa 0
    2939 0000032e 1E9D          MOVL      *+XAR5[AR1],ACC       ; [CPU_] |414| 
    2940                      .dwpsn  file "../proj_lab05a.c",line 415,column 15,is_stmt,isa 0
    2941 0000032f 0694          MOVL      ACC,*+XAR4[AR0]       ; [CPU_] |415| 
    2942 00000330 D04A          MOVB      XAR0,#74              ; [CPU_] |415| 
    2943 00000331 1E95          MOVL      *+XAR5[AR0],ACC       ; [CPU_] |415| 
    2944 00000332 6F0D          B         $C$L30,UNC            ; [CPU_] |415| 
    2945                      ; branch occurs ; [] |415| 
    2946 00000333       $C$L28:    
    2947 00000333 761F-         MOVW      DP,#_Flag_Latch_softwareUpdate ; [CPU_U] 
         00000334 0000 
    2948                      .dwpsn  file "../proj_lab05a.c",line 424,column 13,is_stmt,isa 0
    2949 00000335 D018          MOVB      XAR0,#24              ; [CPU_] |424| 
    2950                      .dwpsn  file "../proj_lab05a.c",line 421,column 13,is_stmt,isa 0
    2951 00000336 56BF-         MOVB      @_Flag_Latch_softwareUpdate,#1,UNC ; [CPU_] |421| 
         00000337 0101 
    2952                      .dwpsn  file "../proj_lab05a.c",line 424,column 13,is_stmt,isa 0
    2953 00000338 8A92          MOVL      XAR4,*+XAR2[AR0]      ; [CPU_] |424| 
    2954              $C$DW$269       .dwtag  DW_TAG_TI_branch
    2955                      .dwattr $C$DW$269, DW_AT_low_pc(0x00)
    2956                      .dwattr $C$DW$269, DW_AT_name("_EST_getMaxCurrentSlope_pu")
    2957                      .dwattr $C$DW$269, DW_AT_TI_call
    2958 00000339 7640!         LCR       #_EST_getMaxCurrentSlope_pu ; [CPU_] |424| 
         0000033a 0000 
    2959                      ; call occurs [#_EST_getMaxCurrentSlope_pu] ; [] |424| 
    2960 0000033b 761F-         MOVW      DP,#_gMaxCurrentSlope ; [CPU_U] 
         0000033c 0000 
    2961 0000033d 1E0E-         MOVL      @_gMaxCurrentSlope,ACC ; [CPU_] |424| 
    2962 0000033e       $C$L29:    
    2963 0000033e 8A0C-         MOVL      XAR4,@_ctrlHandle     ; [CPU_] |424| 
    2964 0000033f       $C$L30:    
    2965                      .dwpsn  file "../proj_lab05a.c",line 429,column 9,is_stmt,isa 0
    2966 0000033f 9200-         MOV       AL,@_gCounter_updateGlobals ; [CPU_] |429| 
    2967 00000340 EC07          BF        $C$L31,EQ             ; [CPU_] |429| 
    2968                      ; branchcc occurs ; [] |429| 
    2969                      .dwpsn  file "../proj_lab05a.c",line 432,column 13,is_stmt,isa 0
    2970 00000341 2B00-         MOV       @_gCounter_updateGlobals,#0 ; [CPU_] |432| 
    2971                      .dwpsn  file "../proj_lab05a.c",line 434,column 13,is_stmt,isa 0
    2972              $C$DW$270       .dwtag  DW_TAG_TI_branch
    2973                      .dwattr $C$DW$270, DW_AT_low_pc(0x00)
    2974                      .dwattr $C$DW$270, DW_AT_name("_updateGlobalVariables_motor")
    2975                      .dwattr $C$DW$270, DW_AT_TI_call
    2976 00000342 7640'         LCR       #_updateGlobalVariables_motor ; [CPU_] |434| 
         00000343 0047 
    2977                      ; call occurs [#_updateGlobalVariables_motor] ; [] |434| 
TMS320C2000 Assembler PC v6.4.6 Thu Sep 17 14:11:15 2015

Tools Copyright (c) 1996-2015 Texas Instruments Incorporated
C:\Users\Admiral\AppData\Local\Temp\0215610                          PAGE   61

    2978 00000344 761F-         MOVW      DP,#_ctrlHandle       ; [CPU_U] 
         00000345 0000 
    2979 00000346 8A0C-         MOVL      XAR4,@_ctrlHandle     ; [CPU_] |434| 
    2980 00000347       $C$L31:    
    2981                      .dwpsn  file "../proj_lab05a.c",line 438,column 9,is_stmt,isa 0
    2982              $C$DW$271       .dwtag  DW_TAG_TI_branch
    2983                      .dwattr $C$DW$271, DW_AT_low_pc(0x00)
    2984                      .dwattr $C$DW$271, DW_AT_name("_updateIqRef")
    2985                      .dwattr $C$DW$271, DW_AT_TI_call
    2986 00000347 7640'         LCR       #_updateIqRef         ; [CPU_] |438| 
         00000348 001C 
    2987                      ; call occurs [#_updateIqRef] ; [] |438| 
    2988 00000349 761F-         MOVW      DP,#_ctrlHandle       ; [CPU_U] 
         0000034a 0000 
    2989                      .dwpsn  file "../proj_lab05a.c",line 441,column 9,is_stmt,isa 0
    2990 0000034b 8A0C-         MOVL      XAR4,@_ctrlHandle     ; [CPU_] |441| 
    2991              $C$DW$272       .dwtag  DW_TAG_TI_branch
    2992                      .dwattr $C$DW$272, DW_AT_low_pc(0x00)
    2993                      .dwattr $C$DW$272, DW_AT_name("_updateKpKiGains")
    2994                      .dwattr $C$DW$272, DW_AT_TI_call
    2995 0000034c 7640'         LCR       #_updateKpKiGains     ; [CPU_] |441| 
         0000034d 0000 
    2996                      ; call occurs [#_updateKpKiGains] ; [] |441| 
    2997                      .dwpsn  file "../proj_lab05a.c",line 444,column 9,is_stmt,isa 0
    2998 0000034e 8D40-         MOVL      XAR1,#_gMotorVars     ; [CPU_U] |444| 
         0000034f 00C0 
    2999 00000350 D018          MOVB      XAR0,#24              ; [CPU_] |444| 
    3000 00000351 92D9          MOV       AL,*+XAR1[3]          ; [CPU_] |444| 
    3001 00000352 8A92          MOVL      XAR4,*+XAR2[AR0]      ; [CPU_] |444| 
    3002              $C$DW$273       .dwtag  DW_TAG_TI_branch
    3003                      .dwattr $C$DW$273, DW_AT_low_pc(0x00)
    3004                      .dwattr $C$DW$273, DW_AT_name("_EST_setFlag_enableForceAngle")
    3005                      .dwattr $C$DW$273, DW_AT_TI_call
    3006 00000353 7640!         LCR       #_EST_setFlag_enableForceAngle ; [CPU_] |444| 
         00000354 0000 
    3007                      ; call occurs [#_EST_setFlag_enableForceAngle] ; [] |444| 
    3008                      .dwpsn  file "../proj_lab05a.c",line 447,column 9,is_stmt,isa 0
    3009 00000355 D008          MOVB      XAR0,#8               ; [CPU_] |447| 
    3010 00000356 761F-         MOVW      DP,#_ctrlHandle       ; [CPU_U] 
         00000357 0000 
    3011                      .dwpsn  file "C:/ti/motorware/motorware_1_01_00_15/sw/modules/ctrl/src/32b/ctrl.h",line 1262,column 3
    3012 00000358 02F2          MOVB      ACC,#242              ; [CPU_] |1262| 
    3013                      .dwpsn  file "../proj_lab05a.c",line 447,column 9,is_stmt,isa 0
    3014 00000359 8891          MOVZ      AR6,*+XAR1[AR0]       ; [CPU_] |447| 
    3015                      .dwpsn  file "C:/ti/motorware/motorware_1_01_00_15/sw/modules/ctrl/src/32b/ctrl.h",line 1262,column 3
    3016 0000035a 070C-         ADDL      ACC,@_ctrlHandle      ; [CPU_] |1262| 
    3017 0000035b 8AA9          MOVL      XAR4,ACC              ; [CPU_] |1262| 
    3018 0000035c 761F-         MOVW      DP,#_halHandle        ; [CPU_U] 
         0000035d 0000 
    3019                      .dwpsn  file "../proj_lab05a.c",line 455,column 9,is_stmt,isa 0
    3020 0000035e 83A3          MOVL      XAR5,XAR3             ; [CPU_] |455| 
    3021                      .dwpsn  file "C:/ti/motorware/motorware_1_01_00_15/sw/modules/ctrl/src/32b/ctrl.h",line 1262,column 3
    3022 0000035f 7EC4          MOV       *+XAR4[0],AR6         ; [CPU_] |1262| 
    3023                      .dwpsn  file "../proj_lab05a.c",line 455,column 9,is_stmt,isa 0
    3024 00000360 8A00-         MOVL      XAR4,@_halHandle      ; [CPU_] |455| 
TMS320C2000 Assembler PC v6.4.6 Thu Sep 17 14:11:15 2015

Tools Copyright (c) 1996-2015 Texas Instruments Incorporated
C:\Users\Admiral\AppData\Local\Temp\0215610                          PAGE   62

    3025              $C$DW$274       .dwtag  DW_TAG_TI_branch
    3026                      .dwattr $C$DW$274, DW_AT_low_pc(0x00)
    3027                      .dwattr $C$DW$274, DW_AT_name("_HAL_writeDrvData")
    3028                      .dwattr $C$DW$274, DW_AT_TI_call
    3029 00000361 7640!         LCR       #_HAL_writeDrvData    ; [CPU_] |455| 
         00000362 0000 
    3030                      ; call occurs [#_HAL_writeDrvData] ; [] |455| 
    3031 00000363 761F-         MOVW      DP,#_halHandle        ; [CPU_U] 
         00000364 0000 
    3032                      .dwpsn  file "../proj_lab05a.c",line 457,column 9,is_stmt,isa 0
    3033 00000365 83A3          MOVL      XAR5,XAR3             ; [CPU_] |457| 
    3034 00000366 8A00-         MOVL      XAR4,@_halHandle      ; [CPU_] |457| 
    3035              $C$DW$275       .dwtag  DW_TAG_TI_branch
    3036                      .dwattr $C$DW$275, DW_AT_low_pc(0x00)
    3037                      .dwattr $C$DW$275, DW_AT_name("_HAL_readDrvData")
    3038                      .dwattr $C$DW$275, DW_AT_TI_call
    3039 00000367 7640!         LCR       #_HAL_readDrvData     ; [CPU_] |457| 
         00000368 0000 
    3040                      ; call occurs [#_HAL_readDrvData] ; [] |457| 
    3041 00000369 761F-         MOVW      DP,#_ctrlHandle       ; [CPU_U] 
         0000036a 0000 
    3042 0000036b 860C-         MOVL      XAR2,@_ctrlHandle     ; [CPU_] |457| 
    3043 0000036c       $C$L32:    
    3044                      .dwpsn  file "../proj_lab05a.c",line 303,column 5,is_stmt,isa 0
    3045 0000036c 8D40-         MOVL      XAR1,#_gMotorVars     ; [CPU_U] |303| 
         0000036d 00C0 
    3046 0000036e 92C1          MOV       AL,*+XAR1[0]          ; [CPU_] |303| 
    3047 0000036f 56C0          BF        $C$L15,NEQ            ; [CPU_] |303| 
         00000370 FE7B 
    3048                      ; branchcc occurs ; [] |303| 
    3049 00000371 761F-         MOVW      DP,#_halHandle        ; [CPU_U] 
         00000372 0000 
    3050                      .dwpsn  file "C:/Users/Admiral/workspace2_v6_1/proj_lab05a_with_SCI_and_CAP/include/hal/hal.h",line 2
    3051 00000373 8300-         MOVL      XAR5,@_halHandle      ; [CPU_] |248| 
    3052 00000374 A0A9          MOVL      ACC,XAR5              ; [CPU_] |248| 
    3053 00000375 0980          ADDB      ACC,#128              ; [CPU_] |248| 
    3054 00000376 8AA9          MOVL      XAR4,ACC              ; [CPU_] |248| 
    3055 00000377 7622   EALLOW
    3056                      .dwpsn  file "C:/ti/motorware/motorware_1_01_00_15/sw/drivers/pwm/src/32b/f28x/f2802x/pwm.h",line 156
    3057 00000378 D07E          MOVB      XAR0,#126             ; [CPU_] |1567| 
    3058 00000379 0218          MOVB      ACC,#24               ; [CPU_] |1567| 
    3059 0000037a 0795          ADDL      ACC,*+XAR5[AR0]       ; [CPU_] |1567| 
    3060 0000037b 83A9          MOVL      XAR5,ACC              ; [CPU_] |1567| 
    3061 0000037c 1AC5          OR        *+XAR5[0],#0x0004     ; [CPU_] |1567| 
         0000037d 0004 
    3062 0000037e 761A   EDIS
    3063 0000037f 7622   EALLOW
    3064 00000380 0218          MOVB      ACC,#24               ; [CPU_] |1567| 
    3065 00000381 07C4          ADDL      ACC,*+XAR4[0]         ; [CPU_] |1567| 
    3066 00000382 83A9          MOVL      XAR5,ACC              ; [CPU_] |1567| 
    3067 00000383 1AC5          OR        *+XAR5[0],#0x0004     ; [CPU_] |1567| 
         00000384 0004 
    3068 00000385 761A   EDIS
    3069 00000386 7622   EALLOW
    3070 00000387 0218          MOVB      ACC,#24               ; [CPU_] |1567| 
TMS320C2000 Assembler PC v6.4.6 Thu Sep 17 14:11:15 2015

Tools Copyright (c) 1996-2015 Texas Instruments Incorporated
C:\Users\Admiral\AppData\Local\Temp\0215610                          PAGE   63

    3071 00000388 07D4          ADDL      ACC,*+XAR4[2]         ; [CPU_] |1567| 
    3072 00000389 8AA9          MOVL      XAR4,ACC              ; [CPU_] |1567| 
    3073 0000038a 1AC4          OR        *+XAR4[0],#0x0004     ; [CPU_] |1567| 
         0000038b 0004 
    3074 0000038c 761A   EDIS
    3075                      .dwpsn  file "../proj_lab05a.c",line 466,column 5,is_stmt,isa 0
    3076 0000038d 834C          MOVL      XAR5,*-SP[12]         ; [CPU_] |466| 
    3077 0000038e FF69          SPM       #0                    ; [CPU_] 
    3078 0000038f 8AA2          MOVL      XAR4,XAR2             ; [CPU_] |466| 
    3079              $C$DW$276       .dwtag  DW_TAG_TI_branch
    3080                      .dwattr $C$DW$276, DW_AT_low_pc(0x00)
    3081                      .dwattr $C$DW$276, DW_AT_name("_CTRL_setParams")
    3082                      .dwattr $C$DW$276, DW_AT_TI_call
    3083 00000390 7640!         LCR       #_CTRL_setParams      ; [CPU_] |466| 
         00000391 0000 
